(dp0
S'METTS MARK'
p1
(dp2
S'to_messages'
p3
I807
sS'deferral_payments'
p4
S'NaN'
p5
sS'to_poi_fraction'
p6
F0.034482758620689655
sS'rescaled_salary'
p7
F0.32887760953779366
sS'expenses'
p8
I94299
sS'poi'
p9
I00
sS'deferred_income'
p10
g5
sS'email_address'
p11
S'mark.metts@enron.com'
p12
sS'long_term_incentive'
p13
g5
sS'rescaled_total_payments'
p14
F0.010251860171981084
sS'rescaled_total_stock_value'
p15
F0.012799625895430116
sS'rescaled_shared_receipt_with_poi'
p16
F0.12683457148034064
sS'restricted_stock_deferred'
p17
g5
sS'shared_receipt_with_poi'
p18
I702
sS'loan_advances'
p19
g5
sS'from_messages'
p20
I29
sS'other'
p21
I1740
sS'rescaled_from_poi_fraction'
p22
F0.21665480239394658
sS'director_fees'
p23
g5
sS'bonus'
p24
I600000
sS'from_poi_fraction'
p25
F0.04708798017348203
sS'total_stock_value'
p26
I585062
sS'from_poi_to_this_person'
p27
I38
sS'from_this_person_to_poi'
p28
I1
sS'restricted_stock'
p29
I585062
sS'rescaled_bonus'
p30
F0.06683480453972257
sS'salary'
p31
I365788
sS'total_payments'
p32
I1061827
sS'rescaled_restricted_stock'
p33
F0.18366452871857167
sS'exercised_stock_options'
p34
g5
sS'rescaled_to_poi_fraction'
p35
F0.034482758620689655
ssS'BAXTER JOHN C'
p36
(dp37
g3
g5
sg4
I1295738
sg6
I0
sg7
F0.24003381404615312
sg8
I11200
sg9
I00
sg10
I-1386055
sg11
g5
sg13
I1586055
sg14
F0.054405313961823645
sg15
F0.21701822618471178
sg16
S'NaN'
p38
sg17
g5
sg18
g5
sg19
g5
sg20
g5
sg21
I2660303
sg22
F0.0
sg23
g5
sg24
I1200000
sg25
I0
sg26
I10623258
sg27
g5
sg28
g5
sg29
I3942714
sg30
F0.1424968474148802
sg31
I267102
sg32
I5634343
sg33
F0.377008789035058
sg34
I6680544
sg35
F0.0
ssS'ELLIOTT STEVEN'
p39
(dp40
g3
g5
sg4
g5
sg6
I0
sg7
F0.15346319391491212
sg8
I78552
sg9
I00
sg10
I-400729
sg11
S'steven.elliott@enron.com'
p41
sg13
g5
sg14
F0.002043044855937851
sg15
F0.1367702447875685
sg16
g38
sg17
g5
sg18
g5
sg19
g5
sg20
g5
sg21
I12961
sg22
F0.0
sg23
g5
sg24
I350000
sg25
I0
sg26
I6678735
sg27
g5
sg28
g5
sg29
I1788391
sg30
F0.03530895334174023
sg31
I170941
sg32
I211725
sg33
F0.2529560322521056
sg34
I4890344
sg35
F0.0
ssS'CORDES WILLIAM R'
p42
(dp43
g3
I764
sg4
g5
sg6
F0.0
sg7
g38
sg8
g5
sg9
I00
sg10
g5
sg11
S'bill.cordes@enron.com'
p44
sg13
g5
sg14
g38
sg15
F0.022018029761909728
sg16
F0.010146765718427252
sg17
g5
sg18
I58
sg19
g5
sg20
I12
sg21
g5
sg22
F0.060223348557424526
sg23
g5
sg24
g5
sg25
F0.013089005235602094
sg26
I1038185
sg27
I10
sg28
I0
sg29
I386335
sg30
g38
sg31
g5
sg32
g5
sg33
F0.1722211972417199
sg34
I651850
sg35
F0.0
ssS'HANNON KEVIN P'
p45
(dp46
g3
I1045
sg4
g5
sg6
F0.65625
sg7
F0.21859934586565669
sg8
I34039
sg9
I01
sg10
I-3117011
sg11
S'kevin.hannon@enron.com'
p47
sg13
I1617011
sg14
F0.0027861625056748696
sg15
F0.13091784215016056
sg16
F0.1871715890559884
sg17
g5
sg18
I1035
sg19
g5
sg20
I32
sg21
I11350
sg22
F0.14089382062506361
sg23
g5
sg24
I1500000
sg25
F0.03062200956937799
sg26
I6391065
sg27
I32
sg28
I21
sg29
I853064
sg30
F0.18032786885245902
sg31
I243293
sg32
I288682
sg33
F0.19909693459426664
sg34
I5538001
sg35
F0.65625
ssS'MORDAUNT KRISTINA M'
p48
(dp49
g3
g5
sg4
g5
sg6
I0
sg7
F0.2400257116389279
sg8
I35018
sg9
I00
sg10
g5
sg11
S'kristina.mordaunt@enron.com'
p50
sg13
g5
sg14
F0.006067749652869127
sg15
F0.005138994206615752
sg16
g38
sg17
g5
sg18
g5
sg19
g5
sg20
g5
sg21
I1411
sg22
F0.0
sg23
g5
sg24
I325000
sg25
I0
sg26
I208510
sg27
g5
sg28
g5
sg29
I208510
sg30
F0.03215636822194199
sg31
I267093
sg32
I628522
sg33
F0.16198146927384854
sg34
g5
sg35
F0.0
ssS'MEYER ROCKFORD G'
p51
(dp52
g3
I232
sg4
I1848227
sg6
F0.0
sg7
g38
sg8
g5
sg9
I00
sg10
g5
sg11
S'rockford.meyer@enron.com'
p53
sg13
g5
sg14
F0.01784555171080395
sg15
F0.020343461798999724
sg16
F0.003623844899438304
sg17
g5
sg18
I22
sg19
g5
sg20
I28
sg21
g5
sg22
F0.0
sg23
g5
sg24
g5
sg25
F0.0
sg26
I955873
sg27
I0
sg28
I0
sg29
I462384
sg30
g38
sg31
g5
sg32
I1848227
sg33
F0.17660034006319408
sg34
I493489
sg35
F0.0
ssS'MCMAHON JEFFREY'
p54
(dp55
g3
I2355
sg4
g5
sg6
F0.5416666666666666
sg7
F0.3330728559455014
sg8
I137108
sg9
I00
sg10
g5
sg11
S'jeffrey.mcmahon@enron.com'
p56
sg13
I694862
sg14
F0.03958707081315314
sg15
F0.03472641212889136
sg16
F0.40333393730748324
sg17
g5
sg18
I2228
sg19
g5
sg20
I48
sg21
I297353
sg22
F0.11331707096715907
sg23
g5
sg24
I2600000
sg25
F0.024628450106157114
sg26
I1662855
sg27
I58
sg28
I26
sg29
I558801
sg30
F0.31904161412358134
sg31
I370448
sg32
I4099771
sg33
F0.1821523369785786
sg34
I1104054
sg35
F0.5416666666666666
ssS'HORTON STANLEY C'
p57
(dp58
g3
I2350
sg4
I3131860
sg6
F0.013979496738117428
sg7
g38
sg8
g5
sg9
I00
sg10
g5
sg11
S'stanley.horton@enron.com'
p59
sg13
g5
sg14
F0.03024065986321216
sg15
F0.1485273955693404
sg16
F0.19423808660989308
sg17
g5
sg18
I1074
sg19
g5
sg20
I1073
sg21
g5
sg22
F0.08614757808963332
sg23
g5
sg24
g5
sg25
F0.01872340425531915
sg26
I7256648
sg27
I44
sg28
I15
sg29
I2046079
sg30
g38
sg31
g5
sg32
I3131860
sg33
F0.26779452526818787
sg34
I5210569
sg35
F0.013979496738117428
ssS'PIPER GREGORY F'
p60
(dp61
g3
I1238
sg4
I1130036
sg6
F0.21621621621621623
sg7
F0.17700518824142653
sg8
I43057
sg9
I00
sg10
I-33333
sg11
S'greg.piper@enron.com'
p62
sg13
g5
sg14
F0.01677758744731116
sg15
F0.01880578964499269
sg16
F0.13408226127921724
sg17
I-409554
sg18
I742
sg19
g5
sg20
I222
sg21
I778
sg22
F0.22670831471487984
sg23
g5
sg24
I400000
sg25
F0.049273021001615507
sg26
I880290
sg27
I61
sg28
I48
sg29
I409554
sg30
F0.0416141235813367
sg31
I197091
sg32
I1737629
sg33
F0.17355822096552703
sg34
I880290
sg35
F0.21621621621621623
ssS'HUMPHREY GENE E'
p63
(dp64
g3
I128
sg4
I2964506
sg6
F1.0
sg7
F0.11725713709543105
sg8
I4994
sg9
I00
sg10
g5
sg11
S'gene.humphrey@enron.com'
p65
sg13
g5
sg14
F0.029935174072873657
sg15
F0.04733801735767246
sg16
F0.02119949266171408
sg17
g5
sg18
I119
sg19
g5
sg20
I17
sg21
g5
sg22
F0.35945811170212766
sg23
g5
sg24
g5
sg25
F0.078125
sg26
I2282768
sg27
I10
sg28
I17
sg29
g5
sg30
g38
sg31
I130724
sg32
I3100224
sg33
g38
sg34
I2282768
sg35
F1.0
ssS'UMANOFF ADAM S'
p66
(dp67
g3
I111
sg4
g5
sg6
F0.0
sg7
F0.2593778611625514
sg8
I53122
sg9
I00
sg10
g5
sg11
S'adam.umanoff@enron.com'
p68
sg13
g5
sg14
F0.010914608677926619
sg15
g38
sg16
F0.007066497553904693
sg17
g5
sg18
I41
sg19
g5
sg20
I18
sg21
g5
sg22
F0.4974123059229442
sg23
g5
sg24
I788750
sg25
F0.10810810810810811
sg26
g5
sg27
I12
sg28
I0
sg29
g5
sg30
F0.09063682219419925
sg31
I288589
sg32
I1130461
sg33
g38
sg34
g5
sg35
F0.0
ssS'BLACHMAN JEREMY M'
p69
(dp70
g3
I2475
sg4
g5
sg6
F0.14285714285714285
sg7
F0.22332845088275727
sg8
I84208
sg9
I00
sg10
g5
sg11
S'jeremy.blachman@enron.com'
p71
sg13
I831809
sg14
F0.019454363714746223
sg15
F0.02031255902983289
sg16
F0.42109077731473094
sg17
g5
sg18
I2326
sg19
g5
sg20
I14
sg21
I272
sg22
F0.046475392220073075
sg23
g5
sg24
I850000
sg25
F0.010101010101010102
sg26
I954354
sg27
I25
sg28
I2
sg29
I189041
sg30
F0.09836065573770492
sg31
I248546
sg32
I2014835
sg33
F0.16086038245362366
sg34
I765313
sg35
F0.14285714285714285
ssS'SUNDE MARTIN'
p72
(dp73
g3
I2647
sg4
g5
sg6
F0.34210526315789475
sg7
F0.23137684205977596
sg8
g5
sg9
I00
sg10
g5
sg11
S'marty.sunde@enron.com'
p74
sg13
I476451
sg14
F0.014918079334860602
sg15
F0.01511597052465802
sg16
F0.46439572386301864
sg17
g5
sg18
I2565
sg19
g5
sg20
I38
sg21
I111122
sg22
F0.06431407695584725
sg23
g5
sg24
I700000
sg25
F0.013978088401964487
sg26
I698920
sg27
I37
sg28
I13
sg29
I698920
sg30
F0.07944514501891552
sg31
I257486
sg32
I1545059
sg33
F0.19022083377672377
sg34
g5
sg35
F0.34210526315789475
ssS'GIBBS DANA R'
p75
(dp76
g3
I169
sg4
I504610
sg6
F0.0
sg7
g38
sg8
g5
sg9
I00
sg10
g5
sg11
S'dana.gibbs@enron.com'
p77
sg13
I461912
sg14
F0.009331569261366239
sg15
F0.046025961865982845
sg16
F0.0038050371444102193
sg17
g5
sg18
I23
sg19
g5
sg20
I12
sg21
g5
sg22
F0.0
sg23
g5
sg24
g5
sg25
F0.0
sg26
I2218275
sg27
I0
sg28
I0
sg29
g5
sg30
g38
sg31
g5
sg32
I966522
sg33
g38
sg34
I2218275
sg35
F0.0
ssS'LOWRY CHARLES P'
p78
(dp79
g3
g5
sg4
g5
sg6
I0
sg7
g38
sg8
g5
sg9
I00
sg10
g5
sg11
g5
sg13
g5
sg14
g38
sg15
F0.008469230413834057
sg16
g38
sg17
I-153686
sg18
g5
sg19
g5
sg20
g5
sg21
g5
sg22
F0.0
sg23
g5
sg24
g5
sg25
I0
sg26
I372205
sg27
g5
sg28
g5
sg29
I153686
sg30
g38
sg31
g5
sg32
g5
sg33
F0.15882452932665
sg34
I372205
sg35
F0.0
ssS'COLWELL WESLEY'
p80
(dp81
g3
I1758
sg4
I27610
sg6
F0.275
sg7
F0.25933554859148655
sg8
I16514
sg9
I01
sg10
I-144062
sg11
S'wes.colwell@enron.com'
p82
sg13
g5
sg14
F0.014389736465396343
sg15
F0.015102177188584871
sg16
F0.20474723681826418
sg17
g5
sg18
I1132
sg19
g5
sg20
I40
sg21
I101740
sg22
F0.6281315808583254
sg23
g5
sg24
I1200000
sg25
F0.13651877133105803
sg26
I698242
sg27
I240
sg28
I11
sg29
I698242
sg30
F0.1424968474148802
sg31
I288542
sg32
I1490344
sg33
F0.1901817923845561
sg34
g5
sg35
F0.275
ssS'MULLER MARK S'
p83
(dp84
g3
I136
sg4
I842924
sg6
F0.0
sg7
F0.22612648217785505
sg8
g5
sg9
I00
sg10
I-719000
sg11
S's..muller@enron.com'
p85
sg13
I1725545
sg14
F0.03091862665230264
sg15
F0.029721607958763052
sg16
F0.020293531436854504
sg17
g5
sg18
I114
sg19
g5
sg20
I16
sg21
I947
sg22
F0.4059762202753442
sg23
g5
sg24
I1100000
sg25
F0.08823529411764706
sg26
I1416848
sg27
I12
sg28
I0
sg29
I360528
sg30
F0.12988650693568726
sg31
I251654
sg32
I3202070
sg33
F0.17073514826285383
sg34
I1056320
sg35
F0.0
ssS'JACKSON CHARLENE R'
p86
(dp87
g3
I258
sg4
g5
sg6
F0.3392857142857143
sg7
F0.259349952870998
sg8
I10181
sg9
I00
sg10
g5
sg11
S'charlene.jackson@enron.com'
p88
sg13
g5
sg14
F0.005320856401158965
sg15
F0.015661499000766386
sg16
F0.020837108171770247
sg17
g5
sg18
I117
sg19
g5
sg20
I56
sg21
I2435
sg22
F0.4458395183902359
sg23
g5
sg24
I250000
sg25
F0.09689922480620156
sg26
I725735
sg27
I25
sg28
I19
sg29
I540672
sg30
F0.02269861286254729
sg31
I288558
sg32
I551174
sg33
F0.18110841161190047
sg34
I185063
sg35
F0.3392857142857143
ssS'WESTFAHL RICHARD K'
p89
(dp90
g3
g5
sg4
g5
sg6
I0
sg7
F0.05695722199065342
sg8
I51870
sg9
I00
sg10
I-10800
sg11
S'dick.westfahl@enron.com'
p91
sg13
I256191
sg14
F0.007357952994141685
sg15
F0.008728109767124341
sg16
g38
sg17
g5
sg18
g5
sg19
g5
sg20
g5
sg21
I401130
sg22
F0.0
sg23
g5
sg24
g5
sg25
I0
sg26
I384930
sg27
g5
sg28
g5
sg29
I384930
sg30
g38
sg31
I63744
sg32
I762135
sg33
F0.1721402928818444
sg34
g5
sg35
F0.0
ssS'WALTERS GARETH W'
p92
(dp93
g3
g5
sg4
I53625
sg6
I0
sg7
g38
sg8
I33785
sg9
I00
sg10
g5
sg11
g5
sg13
g5
sg14
F0.0008426255227120564
sg15
F0.021858206092012007
sg16
g38
sg17
g5
sg18
g5
sg19
g5
sg20
g5
sg21
g5
sg22
F0.0
sg23
g5
sg24
g5
sg25
I0
sg26
I1030329
sg27
g5
sg28
g5
sg29
g5
sg30
g38
sg31
g5
sg32
I87410
sg33
g38
sg34
I1030329
sg35
F0.0
ssS'WALLS JR ROBERT H'
p94
(dp95
g3
I671
sg4
g5
sg6
F0.0
sg7
F0.32104798335585505
sg8
I50936
sg9
I00
sg10
g5
sg11
S'rob.walls@enron.com'
p96
sg13
I540751
sg14
F0.0173680780771313
sg15
F0.12090713522561493
sg16
F0.038593948179017935
sg17
g5
sg18
I215
sg19
g5
sg20
I146
sg21
I2
sg22
F0.11656942638805212
sg23
g5
sg24
I850000
sg25
F0.02533532041728763
sg26
I5898997
sg27
I17
sg28
I0
sg29
I1552453
sg30
F0.09836065573770492
sg31
I357091
sg32
I1798780
sg33
F0.23936997327680049
sg34
I4346544
sg35
F0.0
ssS'KITCHEN LOUISE'
p97
(dp98
g3
I8305
sg4
g5
sg6
F0.11226851851851852
sg7
F0.24394097486363198
sg8
I5774
sg9
I00
sg10
g5
sg11
S'louise.kitchen@enron.com'
p99
sg13
g5
sg14
F0.03351684915490006
sg15
F0.012028195938855322
sg16
F0.6644319623120131
sg17
g5
sg18
I3669
sg19
g5
sg20
I1728
sg21
I93925
sg22
F0.1390568357948941
sg23
g5
sg24
I3100000
sg25
F0.030222757375075255
sg26
I547143
sg27
I251
sg28
I194
sg29
I466101
sg30
F0.38209331651954603
sg31
I271442
sg32
I3471141
sg33
F0.17681437672202482
sg34
I81042
sg35
F0.11226851851851852
ssS'CHAN RONNIE'
p100
(dp101
g3
g5
sg4
g5
sg6
I0
sg7
g38
sg8
g5
sg9
I00
sg10
I-98784
sg11
g5
sg13
g5
sg14
g38
sg15
g38
sg16
g38
sg17
I-32460
sg18
g5
sg19
g5
sg20
g5
sg21
g5
sg22
F0.0
sg23
I98784
sg24
g5
sg25
I0
sg26
g5
sg27
g5
sg28
g5
sg29
I32460
sg30
g38
sg31
g5
sg32
g5
sg33
F0.15184395144033946
sg34
g5
sg35
F0.0
ssS'BELFER ROBERT'
p102
(dp103
g3
g5
sg4
I-102500
sg6
I0
sg7
g38
sg8
g5
sg9
I00
sg10
g5
sg11
g5
sg13
g5
sg14
F0.0009883386525706998
sg15
F0.0
sg16
g38
sg17
I44093
sg18
g5
sg19
g5
sg20
g5
sg21
g5
sg22
F0.0
sg23
I3285
sg24
g5
sg25
I0
sg26
I-44093
sg27
g5
sg28
g5
sg29
g5
sg30
g38
sg31
g5
sg32
I102500
sg33
g38
sg34
I3285
sg35
F0.0
ssS'SHANKMAN JEFFREY A'
p104
(dp105
g3
I3221
sg4
g5
sg6
F0.030958597538232
sg7
F0.27335091255612043
sg8
I178979
sg9
I00
sg10
g5
sg11
S'jeffrey.shankman@enron.com'
p106
sg13
I554422
sg14
F0.029341100966500996
sg15
F0.043050832858110864
sg16
F0.3131001993114695
sg17
g5
sg18
I1730
sg19
g5
sg20
I2681
sg21
I1191
sg22
F0.13427506985408258
sg23
g5
sg24
I2000000
sg25
F0.029183483390251473
sg26
I2072035
sg27
I94
sg28
I83
sg29
I630137
sg30
F0.24337957124842372
sg31
I304110
sg32
I3038702
sg33
F0.1862600902996306
sg34
I1441898
sg35
F0.030958597538232
ssS'WODRASKA JOHN'
p107
(dp108
g3
g5
sg4
g5
sg6
I0
sg7
g38
sg8
g5
sg9
I00
sg10
g5
sg11
S'john.wodraska@enron.com'
p109
sg13
g5
sg14
F0.001829235702768197
sg15
g38
sg16
g38
sg17
g5
sg18
g5
sg19
g5
sg20
g5
sg21
I189583
sg22
F0.0
sg23
g5
sg24
g5
sg25
I0
sg26
g5
sg27
g5
sg28
g5
sg29
g5
sg30
g38
sg31
g5
sg32
I189583
sg33
g38
sg34
g5
sg35
F0.0
ssS'BERGSIEKER RICHARD P'
p110
(dp111
g3
I383
sg4
g5
sg6
F0.0
sg7
F0.16875063581390032
sg8
I59175
sg9
I00
sg10
I-485813
sg11
S'rick.bergsieker@enron.com'
p112
sg13
I180250
sg14
F0.005974354199456747
sg15
F0.014308897611150843
sg16
F0.04185540858851241
sg17
g5
sg18
I233
sg19
g5
sg20
I59
sg21
I427316
sg22
F0.04805288595078051
sg23
g5
sg24
I250000
sg25
F0.010443864229765013
sg26
I659249
sg27
I4
sg28
I0
sg29
I659249
sg30
F0.02269861286254729
sg31
I187922
sg32
I618850
sg33
F0.1879364516695205
sg34
g5
sg35
F0.0
ssS'URQUHART JOHN A'
p113
(dp114
g3
g5
sg4
g5
sg6
I0
sg7
g38
sg8
I228656
sg9
I00
sg10
I-36666
sg11
g5
sg13
g5
sg14
F0.0022065351807646696
sg15
g38
sg16
g38
sg17
g5
sg18
g5
sg19
g5
sg20
g5
sg21
g5
sg22
F0.0
sg23
I36666
sg24
g5
sg25
I0
sg26
g5
sg27
g5
sg28
g5
sg29
g5
sg30
g38
sg31
g5
sg32
I228656
sg33
g38
sg34
g5
sg35
F0.0
ssS'BIBI PHILIPPE A'
p115
(dp116
g3
I1607
sg4
g5
sg6
F0.2
sg7
F0.19189021058156377
sg8
I38559
sg9
I00
sg10
g5
sg11
S'philippe.bibi@enron.com'
p117
sg13
I369721
sg14
F0.019770683841181573
sg15
F0.038407910490444445
sg16
F0.2417104547925349
sg17
g5
sg18
I1336
sg19
g5
sg20
I40
sg21
I425688
sg22
F0.06585218922533066
sg23
g5
sg24
I1000000
sg25
F0.01431238332296204
sg26
I1843816
sg27
I23
sg28
I8
sg29
I378082
sg30
F0.11727616645649433
sg31
I213625
sg32
I2047593
sg33
F0.17174596330431602
sg34
I1465734
sg35
F0.2
ssS'RIEKER PAULA H'
p118
(dp119
g3
I1328
sg4
I214678
sg6
F0.5853658536585366
sg7
F0.22391812607525696
sg8
I33271
sg9
I01
sg10
I-100000
sg11
S'paula.rieker@enron.com'
p120
sg13
g5
sg14
F0.010611778362121654
sg15
F0.03993516643785936
sg16
F0.22757745968472548
sg17
g5
sg18
I1258
sg19
g5
sg20
I82
sg21
I1950
sg22
F0.12126297744168163
sg23
g5
sg24
I700000
sg25
F0.02635542168674699
sg26
I1918887
sg27
I35
sg28
I48
sg29
I283649
sg30
F0.07944514501891552
sg31
I249201
sg32
I1099100
sg33
F0.16630821140672009
sg34
I1635238
sg35
F0.5853658536585366
ssS'WHALEY DAVID A'
p121
(dp122
g3
g5
sg4
g5
sg6
I0
sg7
g38
sg8
g5
sg9
I00
sg10
g5
sg11
g5
sg13
g5
sg14
g38
sg15
F0.002905368905519737
sg16
g38
sg17
g5
sg18
g5
sg19
g5
sg20
g5
sg21
g5
sg22
F0.0
sg23
g5
sg24
g5
sg25
I0
sg26
I98718
sg27
g5
sg28
g5
sg29
g5
sg30
g38
sg31
g5
sg32
g5
sg33
g38
sg34
I98718
sg35
F0.0
ssS'BECK SALLY W'
p123
(dp124
g3
I7315
sg4
g5
sg6
F0.08887865530739121
sg7
F0.20782944612844476
sg8
I37172
sg9
I00
sg10
g5
sg11
S'sally.beck@enron.com'
p125
sg13
g5
sg14
F0.00935615412741131
sg15
F0.00346094739345721
sg16
F0.4778039499909404
sg17
g5
sg18
I2639
sg19
g5
sg20
I4343
sg21
I566
sg22
F0.09057459897325518
sg23
g5
sg24
I700000
sg25
F0.01968557758031442
sg26
I126027
sg27
I144
sg28
I386
sg29
I126027
sg30
F0.07944514501891552
sg31
I231330
sg32
I969068
sg33
F0.15723183630900145
sg34
g5
sg35
F0.08887865530739121
ssS'HAUG DAVID L'
p126
(dp127
g3
I573
sg4
g5
sg6
F0.3684210526315789
sg7
g38
sg8
I475
sg9
I00
sg10
g5
sg11
S'david.haug@enron.com'
p128
sg13
g5
sg14
F3.157600627155491e-06
sg15
F0.04600610597216664
sg16
F0.08497916289182823
sg17
g5
sg18
I471
sg19
g5
sg20
I19
sg21
g5
sg22
F0.032119119230626415
sg23
g5
sg24
g5
sg25
F0.006980802792321117
sg26
I2217299
sg27
I4
sg28
I7
sg29
I2217299
sg30
g38
sg31
g5
sg32
I475
sg33
F0.277653916369883
sg34
g5
sg35
F0.3684210526315789
ssS'ECHOLS JOHN B'
p129
(dp130
g3
g5
sg4
g5
sg6
I0
sg7
F0.1636398173897465
sg8
I21530
sg9
I00
sg10
g5
sg11
S'john.echols@enron.com'
p131
sg13
I2234774
sg14
F0.02599638111930569
sg15
F0.02142308533694933
sg16
g38
sg17
g5
sg18
g5
sg19
g5
sg20
g5
sg21
I53775
sg22
F0.0
sg23
g5
sg24
I200000
sg25
I0
sg26
I1008941
sg27
g5
sg28
g5
sg29
I407503
sg30
F0.01639344262295082
sg31
I182245
sg32
I2692324
sg33
F0.17344011787506108
sg34
I601438
sg35
F0.0
ssS'MENDELSOHN JOHN'
p132
(dp133
g3
g5
sg4
g5
sg6
I0
sg7
g38
sg8
I148
sg9
I00
sg10
I-103750
sg11
g5
sg13
g5
sg14
F0.0
sg15
g38
sg16
g38
sg17
g5
sg18
g5
sg19
g5
sg20
g5
sg21
g5
sg22
F0.0
sg23
I103750
sg24
g5
sg25
I0
sg26
g5
sg27
g5
sg28
g5
sg29
g5
sg30
g38
sg31
g5
sg32
I148
sg33
g38
sg34
g5
sg35
F0.0
ssS'HICKERSON GARY J'
p134
(dp135
g3
I1320
sg4
g5
sg6
F0.037037037037037035
sg7
F0.19023641924015625
sg8
I98849
sg9
I00
sg10
g5
sg11
S'gary.hickerson@enron.com'
p136
sg13
I69223
sg14
F0.0201009572792568
sg15
F0.009870759492617625
sg16
F0.16271063598477986
sg17
g5
sg18
I900
sg19
g5
sg20
I27
sg21
I1936
sg22
F0.13942617666021923
sg23
g5
sg24
I1700000
sg25
F0.030303030303030304
sg26
I441096
sg27
I40
sg28
I1
sg29
I441096
sg30
F0.2055485498108449
sg31
I211788
sg32
I2081796
sg33
F0.17537450944893823
sg34
g5
sg35
F0.037037037037037035
ssS'CLINE KENNETH W'
p137
(dp138
g3
g5
sg4
g5
sg6
I0
sg7
g38
sg8
g5
sg9
I00
sg10
g5
sg11
g5
sg13
g5
sg14
g38
sg15
F0.004752618043339598
sg16
g38
sg17
I-472568
sg18
g5
sg19
g5
sg20
g5
sg21
g5
sg22
F0.0
sg23
g5
sg24
g5
sg25
I0
sg26
I189518
sg27
g5
sg28
g5
sg29
I662086
sg30
g38
sg31
g5
sg32
g5
sg33
F0.18809981513497726
sg34
g5
sg35
F0.0
ssS'LEWIS RICHARD'
p139
(dp140
g3
I952
sg4
g5
sg6
F0.0
sg7
g38
sg8
g5
sg9
I00
sg10
g5
sg11
S'richard.lewis@enron.com'
p141
sg13
g5
sg14
g38
sg15
F0.01819926939669067
sg16
F0.1335386845443015
sg17
g5
sg18
I739
sg19
g5
sg20
I26
sg21
g5
sg22
F0.048330502413731456
sg23
g5
sg24
g5
sg25
F0.01050420168067227
sg26
I850477
sg27
I10
sg28
I0
sg29
g5
sg30
g38
sg31
g5
sg32
g5
sg33
g38
sg34
I850477
sg35
F0.0
ssS'HAYES ROBERT E'
p142
(dp143
g3
I504
sg4
I7961
sg6
F0.0
sg7
g38
sg8
g5
sg9
I00
sg10
g5
sg11
S'robert.hayes@enron.com'
p144
sg13
g5
sg14
F7.544444556564481e-05
sg15
F0.003977505794981264
sg16
F0.00869722775865193
sg17
g5
sg18
I50
sg19
g5
sg20
I12
sg21
g5
sg22
F0.14606551840594392
sg23
g5
sg24
g5
sg25
F0.031746031746031744
sg26
I151418
sg27
I16
sg28
I0
sg29
I151418
sg30
g38
sg31
g5
sg32
I7961
sg33
F0.15869393068736345
sg34
g5
sg35
F0.0
ssS'MCCARTY DANNY J'
p145
(dp146
g3
I1433
sg4
g5
sg6
F0.009302325581395349
sg7
g38
sg8
g5
sg9
I00
sg10
g5
sg11
S'danny.mccarty@enron.com'
p147
sg13
g5
sg14
g38
sg15
F0.016336843520359644
sg16
F0.0916832759557891
sg17
g5
sg18
I508
sg19
g5
sg20
I215
sg21
g5
sg22
F0.08026978070110317
sg23
g5
sg24
g5
sg25
F0.017445917655268667
sg26
I758931
sg27
I25
sg28
I2
sg29
I94556
sg30
g38
sg31
g5
sg32
g5
sg33
F0.15541963623096472
sg34
I664375
sg35
F0.009302325581395349
ssS'KOPPER MICHAEL J'
p148
(dp149
g3
g5
sg4
g5
sg6
I0
sg7
F0.20150506715545188
sg8
I118134
sg9
I01
sg10
g5
sg11
S'michael.kopper@enron.com'
p150
sg13
I602671
sg14
F0.02561291128412037
sg15
F0.0209366769709126
sg16
g38
sg17
g5
sg18
g5
sg19
g5
sg20
g5
sg21
I907502
sg22
F0.0
sg23
g5
sg24
I800000
sg25
I0
sg26
I985032
sg27
g5
sg28
g5
sg29
I985032
sg30
F0.09205548549810845
sg31
I224305
sg32
I2652612
sg33
F0.2066960709387854
sg34
g5
sg35
F0.0
ssS'LEFF DANIEL P'
p151
(dp152
g3
I2822
sg4
g5
sg6
F0.2222222222222222
sg7
F0.24601519111327977
sg8
g5
sg9
I00
sg10
g5
sg11
S'dan.leff@enron.com'
p153
sg13
I1387399
sg14
F0.025725078528417124
sg15
F0.008231671733412002
sg16
F0.4837832940750136
sg17
g5
sg18
I2672
sg19
g5
sg20
I63
sg21
I3083
sg22
F0.10923858135922916
sg23
g5
sg24
I1000000
sg25
F0.02374202693125443
sg26
I360528
sg27
I67
sg28
I14
sg29
I360528
sg30
F0.11727616645649433
sg31
I273746
sg32
I2664228
sg33
F0.17073514826285383
sg34
g5
sg35
F0.2222222222222222
ssS'LAVORATO JOHN J'
p154
(dp155
g3
I7259
sg4
g5
sg6
F0.15899419729206962
sg7
F0.30502052159696647
sg8
I49537
sg9
I00
sg10
g5
sg11
S'john.lavorato@enron.com'
p156
sg13
I2035380
sg14
F0.10067250616782242
sg15
F0.10601820545401935
sg16
F0.7175212900887842
sg17
g5
sg18
I3962
sg19
g5
sg20
I2585
sg21
I1552
sg22
F0.33466892163213385
sg23
g5
sg24
I8000000
sg25
F0.07273729163796666
sg26
I5167144
sg27
I528
sg28
I411
sg29
I1008149
sg30
F1.0
sg31
I339288
sg32
I10425757
sg33
F0.2080272211788151
sg34
I4158995
sg35
F0.15899419729206962
ssS'BERBERIAN DAVID'
p157
(dp158
g3
g5
sg4
g5
sg6
I0
sg7
F0.1945523014887723
sg8
I11892
sg9
I00
sg10
g5
sg11
S'david.berberian@enron.com'
p159
sg13
g5
sg14
F0.002204777739437017
sg15
F0.05162754143488657
sg16
g38
sg17
g5
sg18
g5
sg19
g5
sg20
g5
sg21
g5
sg22
F0.0
sg23
g5
sg24
g5
sg25
I0
sg26
I2493616
sg27
g5
sg28
g5
sg29
I869220
sg30
g38
sg31
I216582
sg32
I228474
sg33
F0.20002724835807337
sg34
I1624396
sg35
F0.0
ssS'DETMERING TIMOTHY J'
p160
(dp161
g3
g5
sg4
I875307
sg6
I0
sg7
F0.1890768747394851
sg8
I52255
sg9
I00
sg10
I-775241
sg11
S'timothy.detmering@enron.com'
p162
sg13
I415657
sg14
F0.011630350799290593
sg15
F0.0421522315980062
sg16
g38
sg17
I-315068
sg18
g5
sg19
g5
sg20
g5
sg21
I1105
sg22
F0.0
sg23
g5
sg24
I425000
sg25
I0
sg26
I2027865
sg27
g5
sg28
g5
sg29
I315068
sg30
F0.04476670870113493
sg31
I210500
sg32
I1204583
sg33
F0.1681174171596938
sg34
I2027865
sg35
F0.0
ssS'WAKEHAM JOHN'
p163
(dp164
g3
g5
sg4
g5
sg6
I0
sg7
g38
sg8
I103773
sg9
I00
sg10
g5
sg11
g5
sg13
g5
sg14
F0.0020560421967456533
sg15
g38
sg16
g38
sg17
g5
sg18
g5
sg19
g5
sg20
g5
sg21
g5
sg22
F0.0
sg23
I109298
sg24
g5
sg25
I0
sg26
g5
sg27
g5
sg28
g5
sg29
g5
sg30
g38
sg31
g5
sg32
I213071
sg33
g38
sg34
g5
sg35
F0.0
ssS'POWERS WILLIAM'
p165
(dp166
g3
I653
sg4
g5
sg6
F0.0
sg7
g38
sg8
g5
sg9
I00
sg10
I-17500
sg11
S'ken.powers@enron.com'
p167
sg13
g5
sg14
g38
sg15
g38
sg16
F0.001811922449719152
sg17
g5
sg18
I12
sg19
g5
sg20
I26
sg21
g5
sg22
F0.0
sg23
I17500
sg24
g5
sg25
F0.0
sg26
g5
sg27
I0
sg28
I0
sg29
g5
sg30
g38
sg31
g5
sg32
g5
sg33
g38
sg34
g5
sg35
F0.0
ssS'GOLD JOSEPH'
p168
(dp169
g3
g5
sg4
g5
sg6
I0
sg7
F0.24523555948472292
sg8
g5
sg9
I00
sg10
g5
sg11
S'joe.gold@enron.com'
p170
sg13
I304805
sg14
F0.020730324056247973
sg15
F0.018751287657765604
sg16
g38
sg17
g5
sg18
g5
sg19
g5
sg20
g5
sg21
I819288
sg22
F0.0
sg23
g5
sg24
I750000
sg25
I0
sg26
I877611
sg27
g5
sg28
g5
sg29
I441096
sg30
F0.08575031525851198
sg31
I272880
sg32
I2146973
sg33
F0.17537450944893823
sg34
I436515
sg35
F0.0
ssS'BANNANTINE JAMES M'
p171
(dp172
g3
I566
sg4
g5
sg6
F0.0
sg7
F0.0
sg8
I56301
sg9
I00
sg10
I-5104
sg11
S'james.bannantine@enron.com'
p173
sg13
g5
sg14
F0.008845617421728319
sg15
F0.10757133916468656
sg16
F0.08389200942199673
sg17
I-560222
sg18
I465
sg19
g5
sg20
I29
sg21
I864523
sg22
F0.3170344335012405
sg23
g5
sg24
g5
sg25
F0.06890459363957598
sg26
I5243487
sg27
I39
sg28
I0
sg29
I1757552
sg30
g38
sg31
I477
sg32
I916197
sg33
F0.2511802247402193
sg34
I4046157
sg35
F0.0
ssS'DUNCAN JOHN H'
p174
(dp175
g3
g5
sg4
g5
sg6
I0
sg7
g38
sg8
g5
sg9
I00
sg10
I-25000
sg11
g5
sg13
g5
sg14
F0.0007468546266260375
sg15
F0.008459973823991458
sg16
g38
sg17
g5
sg18
g5
sg19
g5
sg20
g5
sg21
g5
sg22
F0.0
sg23
I102492
sg24
g5
sg25
I0
sg26
I371750
sg27
g5
sg28
g5
sg29
g5
sg30
g38
sg31
g5
sg32
I77492
sg33
g38
sg34
I371750
sg35
F0.0
ssS'SHAPIRO RICHARD S'
p176
(dp177
g3
I15149
sg4
g5
sg6
F0.053497942386831275
sg7
F0.24181094203087738
sg8
I137767
sg9
I00
sg10
g5
sg11
S'richard.shapiro@enron.com'
p178
sg13
g5
sg14
F0.010210540988239192
sg15
F0.020976734609154533
sg16
F0.8198949084979162
sg17
g5
sg18
I4527
sg19
g5
sg20
I1215
sg21
I705
sg22
F0.02247532664890457
sg23
g5
sg24
I650000
sg25
F0.0048848108786058485
sg26
I987001
sg27
I74
sg28
I65
sg29
I379164
sg30
F0.07313997477931904
sg31
I269076
sg32
I1057548
sg33
F0.17180826829889628
sg34
I607837
sg35
F0.053497942386831275
ssS'SHERRIFF JOHN R'
p179
(dp180
g3
I3187
sg4
g5
sg6
F0.25
sg7
F0.3855872579743442
sg8
g5
sg9
I00
sg10
g5
sg11
S'john.sherriff@enron.com'
p181
sg13
I554422
sg14
F0.04186225242467759
sg15
F0.06455352486770655
sg16
F0.38068490668599386
sg17
g5
sg18
I2103
sg19
g5
sg20
I92
sg21
I1852186
sg22
F0.040423529097597284
sg23
g5
sg24
I1500000
sg25
F0.008785691873235017
sg26
I3128982
sg27
I28
sg28
I23
sg29
I1293424
sg30
F0.18032786885245902
sg31
I428780
sg32
I4335388
sg33
F0.22445426122399717
sg34
I1835558
sg35
F0.25
ssS'SHELBY REX'
p182
(dp183
g3
I225
sg4
g5
sg6
F0.358974358974359
sg7
F0.1902868342184463
sg8
I22884
sg9
I01
sg10
I-4167
sg11
S'rex.shelby@enron.com'
p184
sg13
g5
sg14
F0.019348627546956154
sg15
F0.05162754143488657
sg16
F0.016126109802500455
sg17
g5
sg18
I91
sg19
g5
sg20
I39
sg21
I1573324
sg22
F0.26583924349881793
sg23
g5
sg24
I200000
sg25
F0.057777777777777775
sg26
I2493616
sg27
I13
sg28
I14
sg29
I869220
sg30
F0.01639344262295082
sg31
I211844
sg32
I2003885
sg33
F0.20002724835807337
sg34
I1624396
sg35
F0.358974358974359
ssS'LEMAISTRE CHARLES'
p185
(dp186
g3
g5
sg4
g5
sg6
I0
sg7
g38
sg8
g5
sg9
I00
sg10
I-25000
sg11
g5
sg13
g5
sg14
F0.000843417336936603
sg15
F0.009296688169148453
sg16
g38
sg17
g5
sg18
g5
sg19
g5
sg20
g5
sg21
g5
sg22
F0.0
sg23
I112492
sg24
g5
sg25
I0
sg26
I412878
sg27
g5
sg28
g5
sg29
g5
sg30
g38
sg31
g5
sg32
I87492
sg33
g38
sg34
I412878
sg35
F0.0
ssS'DEFFNER JOSEPH M'
p187
(dp188
g3
I714
sg4
g5
sg6
F0.05405405405405406
sg7
F0.18513460349069708
sg8
I41626
sg9
I00
sg10
g5
sg11
S'joseph.deffner@enron.com'
p189
sg13
I335349
sg14
F0.011669613197302869
sg15
F0.004136047783208469
sg16
F0.09965573473455336
sg17
g5
sg18
I552
sg19
g5
sg20
I74
sg21
I25553
sg22
F0.7410677036772156
sg23
g5
sg24
I600000
sg25
F0.16106442577030813
sg26
I159211
sg27
I115
sg28
I4
sg29
I141833
sg30
F0.06683480453972257
sg31
I206121
sg32
I1208649
sg33
F0.15814199596180714
sg34
I17378
sg35
F0.05405405405405406
ssS'KISHKILL JOSEPH G'
p190
(dp191
g3
g5
sg4
g5
sg6
I0
sg7
F0.15643857790149454
sg8
I116335
sg9
I00
sg10
I-51042
sg11
S'joe.kishkill@enron.com'
p192
sg13
g5
sg14
F0.00680523769659504
sg15
F0.021939928556622388
sg16
g38
sg17
g5
sg18
g5
sg19
g5
sg20
g5
sg21
I465357
sg22
F0.0
sg23
g5
sg24
g5
sg25
I0
sg26
I1034346
sg27
g5
sg28
g5
sg29
I1034346
sg30
g38
sg31
I174246
sg32
I704896
sg33
F0.20953572759565373
sg34
g5
sg35
F0.0
ssS'WHALLEY LAWRENCE G'
p193
(dp194
g3
I6019
sg4
g5
sg6
F0.04316546762589928
sg7
F0.45903467920319124
sg8
I57838
sg9
I00
sg10
g5
sg11
S'greg.whalley@enron.com'
p195
sg13
I808346
sg14
F0.0451664931837107
sg15
F0.12457193103714434
sg16
F0.7099112157999637
sg17
g5
sg18
I3920
sg19
g5
sg20
I556
sg21
I301026
sg22
F0.14218273340096785
sg23
g5
sg24
I3000000
sg25
F0.03090214321315833
sg26
I6079137
sg27
I186
sg28
I24
sg29
I2796177
sg30
F0.3694829760403531
sg31
I510364
sg32
I4677574
sg33
F0.31098754913572263
sg34
I3282960
sg35
F0.04316546762589928
ssS'MCCONNELL MICHAEL S'
p196
(dp197
g3
I3329
sg4
g5
sg6
F0.07075127644055434
sg7
F0.3282024089356948
sg8
I81364
sg9
I00
sg10
g5
sg11
S'mike.mcconnell@enron.com'
p198
sg13
I554422
sg14
F0.020289911190792514
sg15
F0.06398993078328999
sg16
F0.39626743975357853
sg17
g5
sg18
I2189
sg19
g5
sg20
I2742
sg21
I540
sg22
F0.1271546627637205
sg23
g5
sg24
I1100000
sg25
F0.02763592670471613
sg26
I3101279
sg27
I92
sg28
I194
sg29
I1478269
sg30
F0.12988650693568726
sg31
I365038
sg32
I2101364
sg33
F0.23509822307537454
sg34
I1623010
sg35
F0.07075127644055434
ssS'PIRO JIM'
p199
(dp200
g3
I58
sg4
g5
sg6
F0.0625
sg7
g38
sg8
g5
sg9
I00
sg10
g5
sg11
S'jim.piro@enron.com'
p201
sg13
g5
sg14
g38
sg15
F0.0018593945974594913
sg16
F0.0001811922449719152
sg17
g5
sg18
I3
sg19
g5
sg20
I16
sg21
g5
sg22
F0.0
sg23
g5
sg24
g5
sg25
F0.0
sg26
I47304
sg27
I0
sg28
I1
sg29
I47304
sg30
g38
sg31
g5
sg32
g5
sg33
F0.15269871607947952
sg34
g5
sg35
F0.0625
ssS'DELAINEY DAVID W'
p202
(dp203
g3
I3093
sg4
g5
sg6
F0.198435972629521
sg7
F0.3283149423693779
sg8
I86174
sg9
I01
sg10
g5
sg11
S'david.delainey@enron.com'
p204
sg13
I1294981
sg14
F0.045846342945652235
sg15
F0.07442611533413919
sg16
F0.37959775321616235
sg17
g5
sg18
I2097
sg19
g5
sg20
I3069
sg21
I1661
sg22
F0.0981798295395918
sg23
g5
sg24
I3000000
sg25
F0.02133850630455868
sg26
I3614261
sg27
I66
sg28
I609
sg29
I1323148
sg30
F0.3694829760403531
sg31
I365163
sg32
I4747979
sg33
F0.22616586349655168
sg34
I2291113
sg35
F0.198435972629521
ssS'SULLIVAN-SHAKLOVITZ COLLEEN'
p205
(dp206
g3
g5
sg4
I181993
sg6
I0
sg7
F0.14611521082913734
sg8
g5
sg9
I00
sg10
g5
sg11
g5
sg13
I554422
sg14
F0.00964862326439995
sg15
F0.028613400885145638
sg16
g38
sg17
g5
sg18
g5
sg19
g5
sg20
g5
sg21
I162
sg22
F0.0
sg23
g5
sg24
I100000
sg25
I0
sg26
I1362375
sg27
g5
sg28
g5
sg29
g5
sg30
F0.0037831021437578815
sg31
I162779
sg32
I999356
sg33
g38
sg34
I1362375
sg35
F0.0
ssS'WROBEL BRUCE'
p207
(dp208
g3
g5
sg4
g5
sg6
I0
sg7
g38
sg8
g5
sg9
I00
sg10
g5
sg11
g5
sg13
g5
sg14
g38
sg15
F0.0037275168367705766
sg16
g38
sg17
g5
sg18
g5
sg19
g5
sg20
g5
sg21
g5
sg22
F0.0
sg23
g5
sg24
g5
sg25
I0
sg26
I139130
sg27
g5
sg28
g5
sg29
g5
sg30
g38
sg31
g5
sg32
g5
sg33
g38
sg34
I139130
sg35
F0.0
ssS'LINDHOLM TOD A'
p209
(dp210
g3
g5
sg4
I204075
sg6
I0
sg7
F0.21244511744439273
sg8
I57727
sg9
I00
sg10
g5
sg11
S'tod.lindholm@enron.com'
p211
sg13
I175000
sg14
F0.008456392449008492
sg15
F0.06323575266888339
sg16
g38
sg17
g5
sg18
g5
sg19
g5
sg20
g5
sg21
I2630
sg22
F0.0
sg23
g5
sg24
I200000
sg25
I0
sg26
I3064208
sg27
g5
sg28
g5
sg29
I514847
sg30
F0.01639344262295082
sg31
I236457
sg32
I875889
sg33
F0.1796213261358972
sg34
I2549361
sg35
F0.0
ssS'MEYER JEROME J'
p212
(dp213
g3
g5
sg4
g5
sg6
I0
sg7
g38
sg8
I2151
sg9
I00
sg10
I-38346
sg11
g5
sg13
g5
sg14
F1.9341510875206264e-05
sg15
g38
sg16
g38
sg17
g5
sg18
g5
sg19
g5
sg20
g5
sg21
g5
sg22
F0.0
sg23
I38346
sg24
g5
sg25
I0
sg26
g5
sg27
g5
sg28
g5
sg29
g5
sg30
g38
sg31
g5
sg32
I2151
sg33
g38
sg34
g5
sg35
F0.0
ssS'LAY KENNETH L'
p214
(dp215
g3
I4273
sg4
I202911
sg6
F0.4444444444444444
sg7
F0.9649462855414344
sg8
I99832
sg9
I01
sg10
I-300000
sg11
S'kenneth.lay@enron.com'
p216
sg13
I3600000
sg14
F1.0
sg15
F1.0
sg16
F0.43649211813734373
sg17
g5
sg18
I2411
sg19
I81525000
sg20
I36
sg21
I10359729
sg22
F0.1324434474757383
sg23
g5
sg24
I7000000
sg25
F0.028785396676807865
sg26
I49110078
sg27
I123
sg28
I16
sg29
I14761694
sg30
F0.8738965952080706
sg31
I1072321
sg32
I103559793
sg33
F1.0
sg34
I34348384
sg35
F0.4444444444444444
ssS'BUTTS ROBERT H'
p217
(dp218
g3
g5
sg4
g5
sg6
I0
sg7
F0.23500491996172063
sg8
I9410
sg9
I00
sg10
I-75000
sg11
S'bob.butts@enron.com'
p219
sg13
I175000
sg14
F0.01227731130210035
sg15
F0.00939313980089299
sg16
g38
sg17
g5
sg18
g5
sg19
g5
sg20
g5
sg21
I150656
sg22
F0.0
sg23
g5
sg24
I750000
sg25
I0
sg26
I417619
sg27
g5
sg28
g5
sg29
I417619
sg30
F0.08575031525851198
sg31
I261516
sg32
I1271582
sg33
F0.17402262926616463
sg34
g5
sg35
F0.0
ssS'OLSON CINDY K'
p220
(dp221
g3
I1184
sg4
I77716
sg6
F0.28846153846153844
sg7
F0.295828790733727
sg8
I63791
sg9
I00
sg10
g5
sg11
S'cindy.olson@enron.com'
p222
sg13
I100000
sg14
F0.012759883446877401
sg15
F0.053929421370975825
sg16
F0.15473817720601557
sg17
g5
sg18
I856
sg19
g5
sg20
I52
sg21
I972
sg22
F0.07772067280046004
sg23
g5
sg24
I750000
sg25
F0.016891891891891893
sg26
I2606763
sg27
I20
sg28
I15
sg29
I969729
sg30
F0.08575031525851198
sg31
I329078
sg32
I1321557
sg33
F0.20581487562264686
sg34
I1637034
sg35
F0.28846153846153844
ssS'MCDONALD REBECCA'
p223
(dp224
g3
I894
sg4
g5
sg6
F0.07692307692307693
sg7
g38
sg8
g5
sg9
I00
sg10
g5
sg11
S'rebecca.mcdonald@enron.com'
p225
sg13
g5
sg14
g38
sg15
F0.035306444289336096
sg16
F0.13009603188983512
sg17
g5
sg18
I720
sg19
g5
sg20
I13
sg21
g5
sg22
F0.2779166071683564
sg23
g5
sg24
g5
sg25
F0.06040268456375839
sg26
I1691366
sg27
I54
sg28
I1
sg29
I934065
sg30
g38
sg31
g5
sg32
g5
sg33
F0.20376122929481802
sg34
I757301
sg35
F0.07692307692307693
ssS'CUMBERLAND MICHAEL S'
p226
(dp227
g3
g5
sg4
g5
sg6
I0
sg7
F0.16602912725370708
sg8
I22344
sg9
I00
sg10
g5
sg11
g5
sg13
I275000
sg14
F0.007800412989055728
sg15
F0.005127398039120627
sg16
g38
sg17
g5
sg18
g5
sg19
g5
sg20
g5
sg21
I713
sg22
F0.0
sg23
g5
sg24
I325000
sg25
I0
sg26
I207940
sg27
g5
sg28
g5
sg29
I207940
sg30
F0.03215636822194199
sg31
I184899
sg32
I807956
sg33
F0.16194864686450403
sg34
g5
sg35
F0.0
ssS'GAHN ROBERT S'
p228
(dp229
g3
g5
sg4
I73122
sg6
I0
sg7
F0.17242912869413501
sg8
I50080
sg9
I00
sg10
I-1042
sg11
g5
sg13
g5
sg14
F0.008694863718391465
sg15
F0.007378824474529333
sg16
g38
sg17
g5
sg18
g5
sg19
g5
sg20
g5
sg21
I76547
sg22
F0.0
sg23
g5
sg24
I509870
sg25
I0
sg26
I318607
sg27
g5
sg28
g5
sg29
I235370
sg30
F0.055469104665825976
sg31
I192008
sg32
I900585
sg33
F0.16352815333524048
sg34
I83237
sg35
F0.0
ssS'MCCLELLAN GEORGE'
p230
(dp231
g3
I1744
sg4
g5
sg6
F0.0
sg7
F0.23671272735129606
sg8
I228763
sg9
I00
sg10
I-125000
sg11
S'george.mcclellan@enron.com'
p232
sg13
g5
sg14
F0.01273290382561663
sg15
F0.02018046444115597
sg16
F0.2658090233737996
sg17
g5
sg18
I1469
sg19
g5
sg20
I49
sg21
I51587
sg22
F0.13718768299824322
sg23
g5
sg24
I900000
sg25
F0.02981651376146789
sg26
I947861
sg27
I52
sg28
I0
sg29
I441096
sg30
F0.10466582597730138
sg31
I263413
sg32
I1318763
sg33
F0.17537450944893823
sg34
I506765
sg35
F0.0
ssS'HERMANN ROBERT J'
p233
(dp234
g3
g5
sg4
g5
sg6
I0
sg7
F0.23603752674919717
sg8
I48357
sg9
I00
sg10
I-280000
sg11
S'robert.hermann@enron.com'
p235
sg13
I150000
sg14
F0.012527205940113062
sg15
F0.014489614726693285
sg16
g38
sg17
g5
sg18
g5
sg19
g5
sg20
g5
sg21
I416441
sg22
F0.0
sg23
g5
sg24
I700000
sg25
I0
sg26
I668132
sg27
g5
sg28
g5
sg29
I480632
sg30
F0.07944514501891552
sg31
I262663
sg32
I1297461
sg33
F0.17765111782761256
sg34
I187500
sg35
F0.0
ssS'SCRIMSHAW MATTHEW'
p236
(dp237
g3
g5
sg4
g5
sg6
I0
sg7
g38
sg8
g5
sg9
I00
sg10
g5
sg11
S'matthew.scrimshaw@enron.com'
p238
sg13
g5
sg14
g38
sg15
F0.01634957896045078
sg16
g38
sg17
g5
sg18
g5
sg19
g5
sg20
g5
sg21
g5
sg22
F0.0
sg23
g5
sg24
g5
sg25
I0
sg26
I759557
sg27
g5
sg28
g5
sg29
g5
sg30
g38
sg31
g5
sg32
g5
sg33
g38
sg34
I759557
sg35
F0.0
ssS'GATHMANN WILLIAM D'
p239
(dp240
g3
g5
sg4
g5
sg6
I0
sg7
g38
sg8
g5
sg9
I00
sg10
g5
sg11
g5
sg13
g5
sg14
g38
sg15
F0.040473737213470654
sg16
g38
sg17
I-72419
sg18
g5
sg19
g5
sg20
g5
sg21
g5
sg22
F0.0
sg23
g5
sg24
g5
sg25
I0
sg26
I1945360
sg27
g5
sg28
g5
sg29
I264013
sg30
g38
sg31
g5
sg32
g5
sg33
F0.16517750819638902
sg34
I1753766
sg35
F0.0
ssS'HAEDICKE MARK E'
p241
(dp242
g3
I4009
sg4
I2157527
sg6
F0.03142709943328181
sg7
F0.33638313943072484
sg8
I76169
sg9
I00
sg10
I-934484
sg11
S'mark.haedicke@enron.com'
p243
sg13
I983346
sg14
F0.03726274843835164
sg15
F0.017235302371389805
sg16
F0.33429969197318354
sg17
I-329825
sg18
I1847
sg19
g5
sg20
I1941
sg21
I52382
sg22
F0.20658306045440314
sg23
g5
sg24
I1150000
sg25
F0.04489897730107259
sg26
I803094
sg27
I180
sg28
I61
sg29
I524169
sg30
F0.13619167717528374
sg31
I374125
sg32
I3859065
sg33
F0.1801581164866156
sg34
I608750
sg35
F0.03142709943328181
ssS'BOWEN JR RAYMOND M'
p244
(dp245
g3
I1858
sg4
g5
sg6
F0.5555555555555556
sg7
F0.25038598967753317
sg8
I65907
sg9
I01
sg10
I-833
sg11
S'raymond.bowen@enron.com'
p246
sg13
I974293
sg14
F0.02577684579741462
sg15
F0.006024880370782777
sg16
F0.2882768617503171
sg17
g5
sg18
I1593
sg19
g5
sg20
I27
sg21
I1621
sg22
F0.3466894166685752
sg23
g5
sg24
I1350000
sg25
F0.07534983853606028
sg26
I252055
sg27
I140
sg28
I15
sg29
I252055
sg30
F0.1614123581336696
sg31
I278601
sg32
I2669589
sg33
F0.16448892859824588
sg34
g5
sg35
F0.5555555555555556
ssS'GILLIS JOHN'
p247
(dp248
g3
g5
sg4
g5
sg6
I0
sg7
g38
sg8
g5
sg9
I00
sg10
g5
sg11
g5
sg13
g5
sg14
g38
sg15
F0.0026393284101973767
sg16
g38
sg17
g5
sg18
g5
sg19
g5
sg20
g5
sg21
g5
sg22
F0.0
sg23
g5
sg24
g5
sg25
I0
sg26
I85641
sg27
g5
sg28
g5
sg29
I75838
sg30
g38
sg31
g5
sg32
g5
sg33
F0.1543417943746306
sg34
I9803
sg35
F0.0
ssS'FITZGERALD JAY L'
p249
(dp250
g3
I936
sg4
g5
sg6
F0.5
sg7
F0.1788651408333416
sg8
I23870
sg9
I00
sg10
g5
sg11
S'jay.fitzgerald@enron.com'
p251
sg13
I556416
sg14
F0.013660813534074976
sg15
F0.033879708804365756
sg16
F0.13063960862475085
sg17
g5
sg18
I723
sg19
g5
sg20
I16
sg21
I285414
sg22
F0.004915666484815421
sg23
g5
sg24
I350000
sg25
F0.0010683760683760685
sg26
I1621236
sg27
I1
sg28
I8
sg29
I956775
sg30
F0.03530895334174023
sg31
I199157
sg32
I1414857
sg33
F0.20506894318291227
sg34
I664461
sg35
F0.5
ssS'MORAN MICHAEL P'
p252
(dp253
g3
I672
sg4
g5
sg6
F0.0
sg7
g38
sg8
g5
sg9
I00
sg10
g5
sg11
S'michael.moran@enron.com'
p254
sg13
g5
sg14
g38
sg15
F0.005395961209477015
sg16
F0.0226490306214894
sg17
g5
sg18
I127
sg19
g5
sg20
I19
sg21
g5
sg22
F0.0
sg23
g5
sg24
g5
sg25
F0.0
sg26
I221141
sg27
I0
sg28
I0
sg29
I161602
sg30
g38
sg31
g5
sg32
g5
sg33
F0.15928035773431862
sg34
I59539
sg35
F0.0
ssS'REDMOND BRIAN L'
p255
(dp256
g3
I1671
sg4
g5
sg6
F0.22171945701357465
sg7
F0.08675247416007295
sg8
I14689
sg9
I00
sg10
g5
sg11
S'brian.redmond@enron.com'
p257
sg13
g5
sg14
F0.0010755251237101093
sg15
F0.16141899738274498
sg16
F0.19224497191520204
sg17
g5
sg18
I1063
sg19
g5
sg20
I221
sg21
g5
sg22
F0.5617097673707934
sg23
g5
sg24
g5
sg25
F0.12208258527827648
sg26
I7890324
sg27
I204
sg28
I49
sg29
I381285
sg30
g38
sg31
I96840
sg32
I111529
sg33
F0.17193040221156242
sg34
I7509039
sg35
F0.22171945701357465
ssS'BAZELIDES PHILIP J'
p258
(dp259
g3
g5
sg4
I684694
sg6
I0
sg7
F0.07232838876430188
sg8
g5
sg9
I00
sg10
g5
sg11
g5
sg13
I93750
sg14
F0.008304277211456258
sg15
F0.033440376809528535
sg16
g38
sg17
g5
sg18
g5
sg19
g5
sg20
g5
sg21
I874
sg22
F0.0
sg23
g5
sg24
g5
sg25
I0
sg26
I1599641
sg27
g5
sg28
g5
sg29
g5
sg30
g38
sg31
I80818
sg32
I860136
sg33
g38
sg34
I1599641
sg35
F0.0
ssS'BELDEN TIMOTHY N'
p260
(dp261
g3
I7991
sg4
I2144013
sg6
F0.2231404958677686
sg7
F0.19222691061514377
sg8
I17355
sg9
I01
sg10
I-2334434
sg11
S'tim.belden@enron.com'
p262
sg13
g5
sg14
F0.053123801264479034
sg15
F0.02349338777374559
sg16
F1.0
sg17
g5
sg18
I5521
sg19
g5
sg20
I484
sg21
I210698
sg22
F0.1312780069067062
sg23
g5
sg24
I5249999
sg25
F0.028532098610937303
sg26
I1110705
sg27
I228
sg28
I108
sg29
I157569
sg30
F0.6532155107187894
sg31
I213999
sg32
I5501630
sg33
F0.15904812479241265
sg34
I953136
sg35
F0.2231404958677686
ssS'DURAN WILLIAM D'
p263
(dp264
g3
I904
sg4
g5
sg6
F0.25
sg7
F0.18924972609362242
sg8
I25785
sg9
I00
sg10
g5
sg11
S'w.duran@enron.com'
p265
sg13
I1105218
sg14
F0.020211685739169923
sg15
F0.03427995968032906
sg16
F0.10817177024823338
sg17
g5
sg18
I599
sg19
g5
sg20
I12
sg21
I1568
sg22
F0.5395052720768216
sg23
g5
sg24
I750000
sg25
F0.1172566371681416
sg26
I1640910
sg27
I106
sg28
I3
sg29
I189041
sg30
F0.08575031525851198
sg31
I210692
sg32
I2093263
sg33
F0.16086038245362366
sg34
I1451869
sg35
F0.25
ssS'THORN TERENCE H'
p266
(dp267
g3
I266
sg4
I16586
sg6
F0.0
sg7
F0.1995136755129949
sg8
I46145
sg9
I00
sg10
g5
sg11
S'terence.thorn@enron.com'
p268
sg13
I200000
sg14
F0.008799808071956986
sg15
F0.09891101611702494
sg16
F0.012864649393005979
sg17
g5
sg18
I73
sg19
g5
sg20
I41
sg21
I426629
sg22
F0.0
sg23
g5
sg24
g5
sg25
F0.0
sg26
I4817796
sg27
I0
sg28
I0
sg29
I365320
sg30
g38
sg31
I222093
sg32
I911453
sg33
F0.17101108683404484
sg34
I4452476
sg35
F0.0
ssS'FASTOW ANDREW S'
p269
(dp270
g3
g5
sg4
g5
sg6
I0
sg7
F0.3963166456754302
sg8
I55921
sg9
I01
sg10
I-1386055
sg11
S'andrew.fastow@enron.com'
p271
sg13
I1736055
sg14
F0.023406173321664052
sg15
F0.03740282793091964
sg16
g38
sg17
g5
sg18
g5
sg19
g5
sg20
g5
sg21
I277464
sg22
F0.0
sg23
g5
sg24
I1300000
sg25
I0
sg26
I1794412
sg27
g5
sg28
g5
sg29
I1794412
sg30
F0.15510718789407313
sg31
I440698
sg32
I2424083
sg33
F0.2533027405444973
sg34
g5
sg35
F0.0
ssS'FOY JOE'
p272
(dp273
g3
I57
sg4
I181755
sg6
F0.0
sg7
g38
sg8
g5
sg9
I00
sg10
g5
sg11
S'tracy.foy@enron.com'
p274
sg13
g5
sg14
F0.0017536464131370864
sg15
F0.007883908773479264
sg16
F0.0
sg17
g5
sg18
I2
sg19
g5
sg20
I13
sg21
g5
sg22
F0.0
sg23
g5
sg24
g5
sg25
F0.0
sg26
I343434
sg27
I0
sg28
I0
sg29
g5
sg30
g38
sg31
g5
sg32
I181755
sg33
g38
sg34
I343434
sg35
F0.0
ssS'CALGER CHRISTOPHER F'
p275
(dp276
g3
I2598
sg4
g5
sg6
F0.1736111111111111
sg7
F0.21580491564043677
sg8
I35818
sg9
I01
sg10
I-262500
sg11
S'christopher.calger@enron.com'
p277
sg13
I375304
sg14
F0.01582806700428531
sg15
F0.00346094739345721
sg16
F0.39608624750860666
sg17
g5
sg18
I2188
sg19
g5
sg20
I144
sg21
I486
sg22
F0.35242944654644326
sg23
g5
sg24
I1250000
sg25
F0.07659738260200154
sg26
I126027
sg27
I199
sg28
I25
sg29
I126027
sg30
F0.14880201765447668
sg31
I240189
sg32
I1639297
sg33
F0.15723183630900145
sg34
g5
sg35
F0.1736111111111111
ssS'RICE KENNETH D'
p278
(dp279
g3
I905
sg4
g5
sg6
F0.2222222222222222
sg7
F0.37825547970301976
sg8
I46950
sg9
I01
sg10
I-3504386
sg11
S'ken.rice@enron.com'
p280
sg13
I1617011
sg14
F0.004875470556122512
sg15
F0.45950590846095235
sg16
F0.1561877151657909
sg17
g5
sg18
I864
sg19
g5
sg20
I18
sg21
I174839
sg22
F0.2135300340895733
sg23
g5
sg24
I1750000
sg25
F0.04640883977900553
sg26
I22542539
sg27
I42
sg28
I4
sg29
I2748364
sg30
F0.21185372005044137
sg31
I420636
sg32
I505050
sg33
F0.3082343248234615
sg34
I19794175
sg35
F0.2222222222222222
ssS'KAMINSKI WINCENTY J'
p281
(dp282
g3
I4607
sg4
g5
sg6
F0.011901447661469933
sg7
F0.24723505353440506
sg8
I83585
sg9
I00
sg10
g5
sg11
S'vince.kaminski@enron.com'
p283
sg13
I323466
sg14
F0.01049320901013131
sg15
F0.020753681310178133
sg16
F0.10527269432868273
sg17
g5
sg18
I583
sg19
g5
sg20
I14368
sg21
I4669
sg22
F0.040947171048681695
sg23
g5
sg24
I400000
sg25
F0.008899500759713479
sg26
I976037
sg27
I41
sg28
I171
sg29
I126027
sg30
F0.0416141235813367
sg31
I275101
sg32
I1086821
sg33
F0.15723183630900145
sg34
I850010
sg35
F0.011901447661469933
ssS'LOCKHART EUGENE E'
p284
(dp285
g3
g5
sg4
g5
sg6
I0
sg7
g38
sg8
g5
sg9
I00
sg10
g5
sg11
g5
sg13
g5
sg14
g38
sg15
g38
sg16
g38
sg17
g5
sg18
g5
sg19
g5
sg20
g5
sg21
g5
sg22
F0.0
sg23
g5
sg24
g5
sg25
I0
sg26
g5
sg27
g5
sg28
g5
sg29
g5
sg30
g38
sg31
g5
sg32
g5
sg33
g38
sg34
g5
sg35
F0.0
ssS'COX DAVID'
p286
(dp287
g3
I102
sg4
g5
sg6
F0.12121212121212122
sg7
F0.282513834860337
sg8
I27861
sg9
I00
sg10
I-41250
sg11
S'chip.cox@enron.com'
p288
sg13
g5
sg14
F0.010633920191595867
sg15
F0.010980268592059054
sg16
F0.012502264903062148
sg17
g5
sg18
I71
sg19
g5
sg20
I33
sg21
I494
sg22
F0.0
sg23
g5
sg24
I800000
sg25
F0.0
sg26
I495633
sg27
I0
sg28
I4
sg29
I378082
sg30
F0.09205548549810845
sg31
I314288
sg32
I1101393
sg33
F0.17174596330431602
sg34
I117551
sg35
F0.12121212121212122
ssS'OVERDYKE JR JERE C'
p289
(dp290
g3
g5
sg4
g5
sg6
I0
sg7
F0.08504286623555858
sg8
I18834
sg9
I00
sg10
g5
sg11
S'jere.overdyke@enron.com'
p291
sg13
I135836
sg14
F0.0024105818439219256
sg15
F0.14956384881356252
sg16
g38
sg17
g5
sg18
g5
sg19
g5
sg20
g5
sg21
I176
sg22
F0.0
sg23
g5
sg24
g5
sg25
I0
sg26
I7307594
sg27
g5
sg28
g5
sg29
I2041016
sg30
g38
sg31
I94941
sg32
I249787
sg33
F0.26750298165676467
sg34
I5266578
sg35
F0.0
ssS'PEREIRA PAULO V. FERRAZ'
p292
(dp293
g3
g5
sg4
g5
sg6
I0
sg7
g38
sg8
I27942
sg9
I00
sg10
I-101250
sg11
g5
sg13
g5
sg14
F0.0002683863970371857
sg15
g38
sg16
g38
sg17
g5
sg18
g5
sg19
g5
sg20
g5
sg21
g5
sg22
F0.0
sg23
I101250
sg24
g5
sg25
I0
sg26
g5
sg27
g5
sg28
g5
sg29
g5
sg30
g38
sg31
g5
sg32
I27942
sg33
g38
sg34
g5
sg35
F0.0
ssS'STABLER FRANK'
p294
(dp295
g3
g5
sg4
g5
sg6
I0
sg7
F0.2151864318889142
sg8
I16514
sg9
I00
sg10
g5
sg11
S'frank.stabler@enron.com'
p296
sg13
g5
sg14
F0.010737184354001986
sg15
F0.011307829807566077
sg16
g38
sg17
g5
sg18
g5
sg19
g5
sg20
g5
sg21
I356071
sg22
F0.0
sg23
g5
sg24
I500000
sg25
I0
sg26
I511734
sg27
g5
sg28
g5
sg29
I511734
sg30
F0.05422446406052964
sg31
I239502
sg32
I1112087
sg33
F0.1794420697143368
sg34
g5
sg35
F0.0
ssS'SKILLING JEFFREY K'
p297
(dp298
g3
I3627
sg4
g5
sg6
F0.2777777777777778
sg7
F1.0
sg8
I29336
sg9
I01
sg10
g5
sg11
S'jeff.skilling@enron.com'
p299
sg13
I1920000
sg14
F0.08384122985357859
sg15
F0.5317507033126446
sg16
F0.369632179742707
sg17
g5
sg18
I2042
sg19
g5
sg20
I108
sg21
I22122
sg22
F0.11163320017129214
sg23
g5
sg24
I5600000
sg25
F0.0242624758753791
sg26
I26093672
sg27
I88
sg28
I30
sg29
I6843672
sg30
F0.6973518284993695
sg31
I1111258
sg32
I8682716
sg33
F0.5440551591529837
sg34
I19250000
sg35
F0.2777777777777778
ssS'BLAKE JR. NORMAN P'
p300
(dp301
g3
g5
sg4
g5
sg6
I0
sg7
g38
sg8
I1279
sg9
I00
sg10
I-113784
sg11
g5
sg13
g5
sg14
F1.0921242536124955e-05
sg15
g38
sg16
g38
sg17
g5
sg18
g5
sg19
g5
sg20
g5
sg21
g5
sg22
F0.0
sg23
I113784
sg24
g5
sg25
I0
sg26
g5
sg27
g5
sg28
g5
sg29
g5
sg30
g38
sg31
g5
sg32
I1279
sg33
g38
sg34
g5
sg35
F0.0
ssS'SHERRICK JEFFREY B'
p302
(dp303
g3
I613
sg4
g5
sg6
F0.72
sg7
g38
sg8
g5
sg9
I00
sg10
g5
sg11
S'jeffrey.sherrick@enron.com'
p304
sg13
g5
sg14
g38
sg15
F0.03817704503652396
sg16
F0.10527269432868273
sg17
g5
sg18
I583
sg19
g5
sg20
I25
sg21
g5
sg22
F0.29272673631599044
sg23
g5
sg24
g5
sg25
F0.0636215334420881
sg26
I1832468
sg27
I39
sg28
I18
sg29
I405999
sg30
g38
sg31
g5
sg32
g5
sg33
F0.17335351278093103
sg34
I1426469
sg35
F0.72
ssS'PRENTICE JAMES'
p305
(dp306
g3
g5
sg4
I564348
sg6
I0
sg7
g38
sg8
g5
sg9
I00
sg10
g5
sg11
S'james.prentice@enron.com'
p307
sg13
g5
sg14
F0.005448068115722104
sg15
F0.02317469660916466
sg16
g38
sg17
g5
sg18
g5
sg19
g5
sg20
g5
sg21
g5
sg22
F0.0
sg23
g5
sg24
g5
sg25
I0
sg26
I1095040
sg27
g5
sg28
g5
sg29
I208809
sg30
g38
sg31
g5
sg32
I564348
sg33
F0.16199868664296083
sg34
I886231
sg35
F0.0
ssS'GRAY RODNEY'
p308
(dp309
g3
g5
sg4
I93585
sg6
I0
sg7
F0.005525841727577263
sg8
g5
sg9
I00
sg10
g5
sg11
g5
sg13
I365625
sg14
F0.011071011299816642
sg15
g38
sg16
g38
sg17
g5
sg18
g5
sg19
g5
sg20
g5
sg21
I680833
sg22
F0.0
sg23
g5
sg24
g5
sg25
I0
sg26
g5
sg27
g5
sg28
g5
sg29
g5
sg30
g38
sg31
I6615
sg32
I1146658
sg33
g38
sg34
g5
sg35
F0.0
ssS'PICKERING MARK R'
p310
(dp311
g3
I898
sg4
g5
sg6
F0.0
sg7
F0.589279074813127
sg8
I31653
sg9
I00
sg10
g5
sg11
S'mark.pickering@enron.com'
p312
sg13
g5
sg14
F0.013388825347943207
sg15
F0.0014829056927844434
sg16
F0.13154556984961044
sg17
g5
sg18
I728
sg19
I400000
sg20
I67
sg21
g5
sg22
F0.03586575368431029
sg23
g5
sg24
I300000
sg25
F0.0077951002227171495
sg26
I28798
sg27
I7
sg28
I0
sg29
g5
sg30
F0.029003783102143757
sg31
I655037
sg32
I1386690
sg33
g38
sg34
I28798
sg35
F0.0
ssS'THE TRAVEL AGENCY IN THE PARK'
p313
(dp314
g3
g5
sg4
g5
sg6
I0
sg7
g38
sg8
g5
sg9
I00
sg10
g5
sg11
g5
sg13
g5
sg14
F0.003495067987148855
sg15
g38
sg16
g38
sg17
g5
sg18
g5
sg19
g5
sg20
g5
sg21
I362096
sg22
F0.0
sg23
g5
sg24
g5
sg25
I0
sg26
g5
sg27
g5
sg28
g5
sg29
g5
sg30
g38
sg31
g5
sg32
I362096
sg33
g38
sg34
g5
sg35
F0.0
ssS'NOLES JAMES L'
p315
(dp316
g3
g5
sg4
I774401
sg6
I0
sg7
g38
sg8
g5
sg9
I00
sg10
g5
sg11
g5
sg13
g5
sg14
F0.007476396814608625
sg15
F0.008398025876583292
sg16
g38
sg17
I-94556
sg18
g5
sg19
g5
sg20
g5
sg21
g5
sg22
F0.0
sg23
g5
sg24
g5
sg25
I0
sg26
I368705
sg27
g5
sg28
g5
sg29
I463261
sg30
g38
sg31
g5
sg32
I774401
sg33
F0.1766508405070452
sg34
g5
sg35
F0.0
ssS'KEAN STEVEN J'
p317
(dp318
g3
I12754
sg4
g5
sg6
F0.05725699067909454
sg7
F0.3635829204856763
sg8
I41953
sg9
I00
sg10
g5
sg11
S'steven.kean@enron.com'
p319
sg13
I300000
sg14
F0.016873116936621402
sg15
F0.12608767219367814
sg16
F0.6589961949628556
sg17
g5
sg18
I3639
sg19
g5
sg20
I6759
sg21
I1231
sg22
F0.05050564028306514
sg23
g5
sg24
I1000000
sg25
F0.010976948408342482
sg26
I6153642
sg27
I140
sg28
I387
sg29
I4131594
sg30
F0.11727616645649433
sg31
I404338
sg32
I1747522
sg33
F0.3878850989946899
sg34
I2022048
sg35
F0.05725699067909454
ssS'FOWLER PEGGY'
p320
(dp321
g3
I517
sg4
g5
sg6
F0.0
sg7
g38
sg8
g5
sg9
I00
sg10
g5
sg11
S'kulvinder.fowler@enron.com'
p322
sg13
g5
sg14
g38
sg15
F0.0392406373815154
sg16
F0.0014495379597753216
sg17
g5
sg18
I10
sg19
g5
sg20
I36
sg21
g5
sg22
F0.0
sg23
g5
sg24
g5
sg25
F0.0
sg26
I1884748
sg27
I0
sg28
I0
sg29
I560170
sg30
g38
sg31
g5
sg32
g5
sg33
F0.1822311683441797
sg34
I1324578
sg35
F0.0
ssS'WASAFF GEORGE'
p323
(dp324
g3
I400
sg4
I831299
sg6
F0.23333333333333334
sg7
F0.23363651340813354
sg8
g5
sg9
I00
sg10
I-583325
sg11
S'george.wasaff@enron.com'
p325
sg13
I200000
sg14
F0.009986969345057141
sg15
F0.04273330131027945
sg16
F0.060699402065591594
sg17
g5
sg18
I337
sg19
g5
sg20
I30
sg21
I1425
sg22
F0.2530585106382979
sg23
g5
sg24
I325000
sg25
F0.055
sg26
I2056427
sg27
I22
sg28
I7
sg29
I388167
sg30
F0.03215636822194199
sg31
I259996
sg32
I1034395
sg33
F0.1723266896170166
sg34
I1668260
sg35
F0.23333333333333334
ssS'WHITE JR THOMAS E'
p326
(dp327
g3
g5
sg4
g5
sg6
I0
sg7
F0.2854442054734462
sg8
I81353
sg9
I00
sg10
g5
sg11
S'thomas.white@enron.com'
p328
sg13
g5
sg14
F0.018677265647250915
sg15
F0.3089913976984781
sg16
g38
sg17
g5
sg18
g5
sg19
g5
sg20
g5
sg21
I1085463
sg22
F0.0
sg23
g5
sg24
I450000
sg25
I0
sg26
I15144123
sg27
g5
sg28
g5
sg29
I13847074
sg30
F0.04791929382093316
sg31
I317543
sg32
I1934359
sg33
F0.9473332771321552
sg34
I1297049
sg35
F0.0
ssS'CHRISTODOULOU DIOMEDES'
p329
(dp330
g3
g5
sg4
g5
sg6
I0
sg7
g38
sg8
g5
sg9
I00
sg10
g5
sg11
S'diomedes.christodoulou@enron.com'
p331
sg13
g5
sg14
g38
sg15
F0.12454646015696207
sg16
g38
sg17
g5
sg18
g5
sg19
g5
sg20
g5
sg21
g5
sg22
F0.0
sg23
g5
sg24
g5
sg25
I0
sg26
I6077885
sg27
g5
sg28
g5
sg29
I950730
sg30
g38
sg31
g5
sg32
g5
sg33
F0.20472085289433764
sg34
I5127155
sg35
F0.0
ssS'ALLEN PHILLIP K'
p332
(dp333
g3
I2902
sg4
I2869717
sg6
F0.029612756264236904
sg7
F0.18138408921290516
sg8
I13868
sg9
I00
sg10
I-3081055
sg11
S'phillip.allen@enron.com'
p334
sg13
I304805
sg14
F0.04330155824694069
sg15
F0.03608308234920695
sg16
F0.25457510418554086
sg17
I-126027
sg18
I1407
sg19
g5
sg20
I2195
sg21
I152
sg22
F0.07451757408683667
sg23
g5
sg24
I4175000
sg25
F0.016195727084769126
sg26
I1729541
sg27
I47
sg28
I65
sg29
I126027
sg30
F0.5176544766708702
sg31
I201955
sg32
I4484442
sg33
F0.15723183630900145
sg34
I1729541
sg35
F0.029612756264236904
ssS'SHARP VICTORIA T'
p335
(dp336
g3
I3136
sg4
I187469
sg6
F0.04411764705882353
sg7
F0.2229683438949712
sg8
I116337
sg9
I00
sg10
g5
sg11
S'vicki.sharp@enron.com'
p337
sg13
I422158
sg14
F0.015221788371329393
sg15
F0.010949813394269228
sg16
F0.4484508063054901
sg17
g5
sg18
I2477
sg19
g5
sg20
I136
sg21
I2401
sg22
F0.0352122231871472
sg23
g5
sg24
I600000
sg25
F0.007653061224489796
sg26
I494136
sg27
I24
sg28
I6
sg29
I213063
sg30
F0.06683480453972257
sg31
I248146
sg32
I1576511
sg33
F0.16224364546638456
sg34
I281073
sg35
F0.04411764705882353
ssS'JAEDICKE ROBERT'
p338
(dp339
g3
g5
sg4
g5
sg6
I0
sg7
g38
sg8
g5
sg9
I00
sg10
I-25000
sg11
g5
sg13
g5
sg14
F0.0008072835707383895
sg15
F0.009680623034004581
sg16
g38
sg17
I-44093
sg18
g5
sg19
g5
sg20
g5
sg21
g5
sg22
F0.0
sg23
I108750
sg24
g5
sg25
I0
sg26
I431750
sg27
g5
sg28
g5
sg29
I44093
sg30
g38
sg31
g5
sg32
I83750
sg33
F0.15251381650683882
sg34
I431750
sg35
F0.0
ssS'WINOKUR JR. HERBERT S'
p340
(dp341
g3
g5
sg4
g5
sg6
I0
sg7
g38
sg8
I1413
sg9
I00
sg10
I-25000
sg11
g5
sg13
g5
sg14
F0.0008192766593589617
sg15
g38
sg16
g38
sg17
g5
sg18
g5
sg19
g5
sg20
g5
sg21
g5
sg22
F0.0
sg23
I108579
sg24
g5
sg25
I0
sg26
g5
sg27
g5
sg28
g5
sg29
g5
sg30
g38
sg31
g5
sg32
I84992
sg33
g38
sg34
g5
sg35
F0.0
ssS'BROWN MICHAEL'
p342
(dp343
g3
I1486
sg4
g5
sg6
F0.024390243902439025
sg7
g38
sg8
I49288
sg9
I00
sg10
g5
sg11
S'michael.brown@enron.com'
p344
sg13
g5
sg14
F0.0004745091584661187
sg15
g38
sg16
F0.13752491393368363
sg17
g5
sg18
I761
sg19
g5
sg20
I41
sg21
g5
sg22
F0.04025156782451819
sg23
g5
sg24
g5
sg25
F0.008748317631224764
sg26
g5
sg27
I13
sg28
I1
sg29
g5
sg30
g38
sg31
g5
sg32
I49288
sg33
g38
sg34
g5
sg35
F0.024390243902439025
ssS'BADUM JAMES P'
p345
(dp346
g3
g5
sg4
I178980
sg6
I0
sg7
g38
sg8
I3486
sg9
I00
sg10
g5
sg11
g5
sg13
g5
sg14
F0.0017605120218401676
sg15
F0.006142103383251037
sg16
g38
sg17
g5
sg18
g5
sg19
g5
sg20
g5
sg21
g5
sg22
F0.0
sg23
g5
sg24
g5
sg25
I0
sg26
I257817
sg27
g5
sg28
g5
sg29
g5
sg30
g38
sg31
g5
sg32
I182466
sg33
g38
sg34
I257817
sg35
F0.0
ssS'HUGHES JAMES A'
p347
(dp348
g3
I719
sg4
g5
sg6
F0.14705882352941177
sg7
g38
sg8
g5
sg9
I00
sg10
g5
sg11
S'james.hughes@enron.com'
p349
sg13
g5
sg14
g38
sg15
F0.02364981397000877
sg16
F0.10635984779851422
sg17
g5
sg18
I589
sg19
g5
sg20
I34
sg21
g5
sg22
F0.22397389992010178
sg23
g5
sg24
g5
sg25
F0.048678720445062586
sg26
I1118394
sg27
I35
sg28
I5
sg29
I363428
sg30
g38
sg31
g5
sg32
g5
sg33
F0.17090213946829078
sg34
I754966
sg35
F0.14705882352941177
ssS'REYNOLDS LAWRENCE'
p350
(dp351
g3
g5
sg4
I51365
sg6
I0
sg7
F0.06835010681673526
sg8
I8409
sg9
I00
sg10
I-200000
sg11
g5
sg13
I156250
sg14
F0.003807728386863435
sg15
F0.0867878333254771
sg16
g38
sg17
I-140264
sg18
g5
sg19
g5
sg20
g5
sg21
I202052
sg22
F0.0
sg23
g5
sg24
I100000
sg25
I0
sg26
I4221891
sg27
g5
sg28
g5
sg29
I201483
sg30
F0.0037831021437578815
sg31
I76399
sg32
I394475
sg33
F0.1615768323081225
sg34
I4160672
sg35
F0.0
ssS'DIMICHELE RICHARD G'
p352
(dp353
g3
g5
sg4
g5
sg6
I0
sg7
F0.23615006018288034
sg8
I35812
sg9
I00
sg10
g5
sg11
S'richard.dimichele@enron.com'
p354
sg13
I694862
sg14
F0.022866078770354997
sg15
F0.17011526854964149
sg16
g38
sg17
g5
sg18
g5
sg19
g5
sg20
g5
sg21
I374689
sg22
F0.0
sg23
g5
sg24
I1000000
sg25
I0
sg26
I8317782
sg27
g5
sg28
g5
sg29
I126027
sg30
F0.11727616645649433
sg31
I262788
sg32
I2368151
sg33
F0.15723183630900145
sg34
I8191755
sg35
F0.0
ssS'BHATNAGAR SANJAY'
p355
(dp356
g3
I523
sg4
g5
sg6
F0.034482758620689655
sg7
g38
sg8
g5
sg9
I00
sg10
g5
sg11
S'sanjay.bhatnagar@enron.com'
p357
sg13
g5
sg14
F0.1492486962464964
sg15
g38
sg16
F0.0835296249320529
sg17
I15456290
sg18
I463
sg19
g5
sg20
I29
sg21
I137864
sg22
F0.0
sg23
I137864
sg24
g5
sg25
F0.0
sS'total_stock_value'
p358
S'NaN'
p359
sg27
I0
sg28
I1
sg29
I-2604490
sg30
g38
sg31
g5
sg32
I15456290
sg33
F0.0
sg34
I2604490
sg35
F0.034482758620689655
ssS'CARTER REBECCA C'
p360
(dp361
g3
I312
sg4
g5
sg6
F0.4666666666666667
sg7
F0.23526869833027392
sg8
g5
sg9
I00
sg10
I-159792
sg11
S'rebecca.carter@enron.com'
p362
sg13
I75000
sg14
F0.004609990696665675
sg15
g38
sg16
F0.03515129552455155
sg17
I-307301
sg18
I196
sg19
g5
sg20
I15
sg21
I540
sg22
F0.4276629841789416
sg23
g5
sg24
I300000
sg25
F0.09294871794871795
sg26
g5
sg27
I29
sg28
I7
sg29
I307301
sg30
F0.029003783102143757
sg31
I261809
sg32
I477557
sg33
F0.1676701686449942
sg34
g5
sg35
F0.4666666666666667
ssS'BUCHANAN HAROLD G'
p363
(dp364
g3
I1088
sg4
g5
sg6
F0.0
sg7
F0.22285220939141018
sg8
I600
sg9
I00
sg10
g5
sg11
S'john.buchanan@enron.com'
p365
sg13
I304805
sg14
F0.010182431583267787
sg15
F0.021536280207024548
sg16
F0.0038050371444102193
sg17
g5
sg18
I23
sg19
g5
sg20
I125
sg21
I1215
sg22
F0.0
sg23
g5
sg24
I500000
sg25
F0.0
sg26
I1014505
sg27
I0
sg28
I0
sg29
I189041
sg30
F0.05422446406052964
sg31
I248017
sg32
I1054637
sg33
F0.16086038245362366
sg34
I825464
sg35
F0.0
ssS'YEAP SOON'
p366
(dp367
g3
g5
sg4
g5
sg6
I0
sg7
g38
sg8
I55097
sg9
I00
sg10
g5
sg11
g5
sg13
g5
sg14
F0.0005306024368855263
sg15
F0.004818533100680307
sg16
g38
sg17
g5
sg18
g5
sg19
g5
sg20
g5
sg21
g5
sg22
F0.0
sg23
g5
sg24
g5
sg25
I0
sg26
I192758
sg27
g5
sg28
g5
sg29
g5
sg30
g38
sg31
g5
sg32
I55097
sg33
g38
sg34
I192758
sg35
F0.0
ssS'MURRAY JULIA H'
p368
(dp369
g3
I2192
sg4
g5
sg6
F0.044444444444444446
sg7
F0.205987498885919
sg8
I57580
sg9
I00
sg10
g5
sg11
S'julia.murray@enron.com'
p370
sg13
I125000
sg14
F0.007841336265685344
sg15
F0.013051873054679327
sg16
F0.07120855227396268
sg17
g5
sg18
I395
sg19
g5
sg20
I45
sg21
I330
sg22
F0.023089280167727908
sg23
g5
sg24
I400000
sg25
F0.005018248175182482
sg26
I597461
sg27
I11
sg28
I2
sg29
I196983
sg30
F0.0416141235813367
sg31
I229284
sg32
I812194
sg33
F0.16131770802382378
sg34
I400478
sg35
F0.044444444444444446
ssS'GARLAND C KEVIN'
p371
(dp372
g3
I209
sg4
g5
sg6
F0.6136363636363636
sg7
F0.20838401088963532
sg8
I48405
sg9
I00
sg10
g5
sg11
S'kevin.garland@enron.com'
p373
sg13
I375304
sg14
F0.015124820097635522
sg15
F0.01912850895196666
sg16
F0.03188983511505707
sg17
g5
sg18
I178
sg19
g5
sg20
I44
sg21
I60814
sg22
F0.22014659472666193
sg23
g5
sg24
I850000
sg25
F0.04784688995215311
sg26
I896153
sg27
I10
sg28
I27
sg29
I259907
sg30
F0.09836065573770492
sg31
I231946
sg32
I1566469
sg33
F0.16494107168276
sg34
I636246
sg35
F0.6136363636363636
ssS'DODSON KEITH'
p374
(dp375
g3
I176
sg4
g5
sg6
F0.21428571428571427
sg7
F0.19853238397127787
sg8
I28164
sg9
I00
sg10
g5
sg11
S'keith.dodson@enron.com'
p376
sg13
g5
sg14
F0.0030880078818346663
sg15
g38
sg16
F0.020293531436854504
sg17
g5
sg18
I114
sg19
g5
sg20
I14
sg21
I774
sg22
F0.261424081237911
sg23
g5
sg24
I70000
sg25
F0.056818181818181816
sg26
g5
sg27
I10
sg28
I3
sg29
g5
sg30
F0.0
sg31
I221003
sg32
I319941
sg33
g38
sg34
g5
sg35
F0.21428571428571427
ssS'YEAGER F SCOTT'
p377
(dp378
g3
g5
sg4
g5
sg6
I0
sg7
F0.1421756403827577
sg8
I53947
sg9
I01
sg10
g5
sg11
S'scott.yeager@enron.com'
p379
sg13
g5
sg14
F0.0034777253243770774
sg15
F0.2426823758252377
sg16
g38
sg17
g5
sg18
g5
sg19
g5
sg20
g5
sg21
I147950
sg22
F0.0
sg23
g5
sg24
g5
sg25
I0
sg26
I11884758
sg27
g5
sg28
g5
sg29
I3576206
sg30
g38
sg31
I158403
sg32
I360300
sg33
F0.3559040949928896
sg34
I8308552
sg35
F0.0
ssS'HIRKO JOSEPH'
p380
(dp381
g3
g5
sg4
I10259
sg6
I0
sg7
g38
sg8
I77978
sg9
I01
sg10
g5
sg11
S'joe.hirko@enron.com'
p382
sg13
g5
sg14
F0.0008781895689194376
sg15
F0.6268065633738387
sg16
g38
sg17
g5
sg18
g5
sg19
g5
sg20
g5
sg21
I2856
sg22
F0.0
sg23
g5
sg24
g5
sg25
I0
sg26
I30766064
sg27
g5
sg28
g5
sg29
g5
sg30
g38
sg31
g5
sg32
I91093
sg33
g38
sg34
I30766064
sg35
F0.0
ssS'DIETRICH JANET R'
p383
(dp384
g3
I2572
sg4
g5
sg6
F0.2222222222222222
sg7
F0.22472746653030615
sg8
I3475
sg9
I00
sg10
g5
sg11
S'janet.dietrich@enron.com'
p385
sg13
I556416
sg14
F0.013618393535435546
sg15
F0.03884065097954759
sg16
F0.3442652654466389
sg17
g5
sg18
I1902
sg19
g5
sg20
I63
sg21
I473
sg22
F0.5456160451341783
sg23
g5
sg24
I600000
sg25
F0.11858475894245724
sg26
I1865087
sg27
I305
sg28
I14
sg29
I315068
sg30
F0.06683480453972257
sg31
I250100
sg32
I1410464
sg33
F0.1681174171596938
sg34
I1550019
sg35
F0.2222222222222222
ssS'DERRICK JR. JAMES V'
p386
(dp387
g3
I2181
sg4
g5
sg6
F0.022002200220022004
sg7
F0.4428397676949822
sg8
I51124
sg9
I00
sg10
I-1284000
sg11
S'james.derrick@enron.com'
p388
sg13
I484000
sg14
F0.0053189927408499715
sg15
F0.18057482853286244
sg16
F0.25348795071570934
sg17
I-1787380
sg18
I1401
sg19
g5
sg20
I909
sg21
I7482
sg22
F0.1350151696957281
sg23
g5
sg24
I800000
sg25
F0.029344337459880788
sg26
I8831913
sg27
I64
sg28
I20
sg29
I1787380
sg30
F0.09205548549810845
sg31
I492375
sg32
I550981
sg33
F0.2528978156628998
sg34
I8831913
sg35
F0.022002200220022004
ssS'FREVERT MARK A'
p389
(dp390
g3
I3275
sg4
I6426990
sg6
F0.2857142857142857
sg7
F0.9546931393316954
sg8
I86987
sg9
I00
sg10
I-3367011
sg11
S'mark.frevert@enron.com'
p391
sg13
I1617011
sg14
F0.1665936765233214
sg15
F0.29837301090888096
sg16
F0.5394093132813915
sg17
g5
sg18
I2979
sg19
I2000000
sg20
I21
sg21
I7427621
sg22
F0.3399870066590872
sg23
g5
sg24
I2000000
sg25
F0.07389312977099237
sg26
I14622185
sg27
I242
sg28
I6
sg29
I4188667
sg30
F0.24337957124842372
sg31
I1060932
sg32
I17252530
sg33
F0.39117154350086353
sg34
I10433518
sg35
F0.2857142857142857
ssS'PAI LOU L'
p392
(dp393
g3
g5
sg4
g5
sg6
I0
sg7
F0.2353317170531365
sg8
I32047
sg9
I00
sg10
g5
sg11
S'lou.pai@enron.com'
p394
sg13
g5
sg14
F0.030158803653681895
sg15
F0.48545265873774984
sg16
g38
sg17
g5
sg18
g5
sg19
g5
sg20
g5
sg21
I1829457
sg22
F0.0
sg23
g5
sg24
I1000000
sg25
I0
sg26
I23817930
sg27
g5
sg28
g5
sg29
I8453763
sg30
F0.11727616645649433
sg31
I261879
sg32
I3123383
sg33
F0.6367693098264996
sg34
I15364167
sg35
F0.0
ssS'BAY FRANKLIN R'
p395
(dp396
g3
g5
sg4
I260455
sg6
I0
sg7
F0.2153385770912538
sg8
I129142
sg9
I00
sg10
I-201641
sg11
S'frank.bay@enron.com'
p397
sg13
g5
sg14
F0.007991027779208784
sg15
F0.0021790012489479277
sg16
g38
sg17
I-82782
sg18
g5
sg19
g5
sg20
g5
sg21
I69
sg22
F0.0
sg23
g5
sg24
I400000
sg25
I0
sg26
I63014
sg27
g5
sg28
g5
sg29
I145796
sg30
F0.0416141235813367
sg31
I239671
sg32
I827696
sg33
F0.1583701980815129
sg34
g5
sg35
F0.0
ssS'HAYSLETT RODERICK J'
p398
(dp399
g3
I2649
sg4
g5
sg6
F0.03581526861451461
sg7
g38
sg8
g5
sg9
I00
sg10
g5
sg11
S'rod.hayslett@enron.com'
p400
sg13
g5
sg14
g38
sg15
F0.00794960004513147
sg16
F0.10309838738901975
sg17
g5
sg18
I571
sg19
g5
sg20
I1061
sg21
g5
sg22
F0.06079170783033341
sg23
g5
sg24
g5
sg25
F0.01321253303133258
sg26
I346663
sg27
I35
sg28
I38
sg29
I346663
sg30
g38
sg31
g5
sg32
g5
sg33
F0.1699367575513423
sg34
g5
sg35
F0.03581526861451461
ssS'FUGH JOHN L'
p401
(dp402
g3
g5
sg4
I50591
sg6
I0
sg7
g38
sg8
g5
sg9
I00
sg10
g5
sg11
g5
sg13
g5
sg14
F0.0004870912796195854
sg15
F0.004485295866346724
sg16
g38
sg17
g5
sg18
g5
sg19
g5
sg20
g5
sg21
g5
sg22
F0.0
sg23
g5
sg24
g5
sg25
I0
sg26
I176378
sg27
g5
sg28
g5
sg29
g5
sg30
g38
sg31
g5
sg32
I50591
sg33
g38
sg34
I176378
sg35
F0.0
ssS'FALLON JAMES B'
p403
(dp404
g3
I1755
sg4
g5
sg6
F0.49333333333333335
sg7
F0.2737812404065248
sg8
I95924
sg9
I00
sg10
g5
sg11
S'jim.fallon@enron.com'
p405
sg13
I374347
sg14
F0.03549830631420183
sg15
F0.04834771804004181
sg16
F0.2902699764450081
sg17
g5
sg18
I1604
sg19
g5
sg20
I75
sg21
I401481
sg22
F0.11011092925986543
sg23
g5
sg24
I2500000
sg25
F0.023931623931623933
sg26
I2332399
sg27
I42
sg28
I37
sg29
I1392142
sg30
F0.3064312736443884
sg31
I304588
sg32
I3676340
sg33
F0.23013875702341977
sg34
I940257
sg35
F0.49333333333333335
ssS'KOENIG MARK E'
p406
(dp407
g3
I2374
sg4
g5
sg6
F0.2459016393442623
sg7
F0.2786048735079192
sg8
I127017
sg9
I01
sg10
g5
sg11
S'mark.koenig@enron.com'
p408
sg13
I300000
sg14
F0.01532713828827822
sg15
F0.039958928409147616
sg16
F0.4111252038412756
sg17
g5
sg18
I2271
sg19
g5
sg20
I61
sg21
I150458
sg22
F0.10271962214773522
sg23
g5
sg24
I700000
sg25
F0.02232518955349621
sg26
I1920055
sg27
I53
sg28
I15
sg29
I1248318
sg30
F0.07944514501891552
sg31
I309946
sg32
I1587421
sg33
F0.2218569145645353
sg34
I671737
sg35
F0.2459016393442623
ssS'SAVAGE FRANK'
p409
(dp410
g3
g5
sg4
g5
sg6
I0
sg7
g38
sg8
g5
sg9
I00
sg10
I-121284
sg11
g5
sg13
g5
sg14
F3.478188825386568e-05
sg15
g38
sg16
g38
sg17
g5
sg18
g5
sg19
g5
sg20
g5
sg21
g5
sg22
F0.0
sg23
I125034
sg24
g5
sg25
I0
sg26
g5
sg27
g5
sg28
g5
sg29
g5
sg30
g38
sg31
g5
sg32
I3750
sg33
g38
sg34
g5
sg35
F0.0
ssS'IZZO LAWRENCE L'
p411
(dp412
g3
I496
sg4
g5
sg6
F0.2631578947368421
sg7
F0.07633998060823871
sg8
I28093
sg9
I00
sg10
g5
sg11
S'larry.izzo@enron.com'
p413
sg13
I312500
sg14
F0.01911408637988282
sg15
F0.11929960124848815
sg16
F0.07881862656278311
sg17
g5
sg18
I437
sg19
g5
sg20
I19
sg21
I1553729
sg22
F0.2597374742621826
sg23
g5
sg24
g5
sg25
F0.056451612903225805
sg26
I5819980
sg27
I28
sg28
I5
sg29
I3654808
sg30
g38
sg31
I85274
sg32
I1979596
sg33
F0.36043024765832266
sg34
I2165172
sg35
F0.2631578947368421
ssS'TILNEY ELIZABETH A'
p414
(dp415
g3
I460
sg4
g5
sg6
F0.5789473684210527
sg7
F0.22224092777964333
sg8
g5
sg9
I00
sg10
I-575000
sg11
S'elizabeth.tilney@enron.com'
p416
sg13
I275000
sg14
F0.003855217927794171
sg15
F0.02465986050298763
sg16
F0.06830947635441204
sg17
g5
sg18
I379
sg19
g5
sg20
I19
sg21
I152055
sg22
F0.10002312673450509
sg23
g5
sg24
I300000
sg25
F0.021739130434782608
sg26
I1168042
sg27
I10
sg28
I11
sg29
I576792
sg30
F0.029003783102143757
sg31
I247338
sg32
I399393
sg33
F0.1831883158672049
sg34
I591250
sg35
F0.5789473684210527
ssS'MARTIN AMANDA K'
p417
(dp418
g3
I1522
sg4
I85430
sg6
F0.0
sg7
F0.3142023495180418
sg8
I8211
sg9
I00
sg10
g5
sg11
S'a..martin@enron.com'
p419
sg13
I5145434
sg14
F0.08117899593031629
sg15
F0.043015657816708984
sg16
F0.08606631636165972
sg17
g5
sg18
I477
sg19
g5
sg20
I230
sg21
I2818454
sg22
F0.0241843039673442
sg23
g5
sg24
g5
sg25
F0.005256241787122208
sg26
I2070306
sg27
I8
sg28
I0
sg29
g5
sg30
g38
sg31
I349487
sg32
I8407016
sg33
g38
sg34
I2070306
sg35
F0.0
ssS'BUY RICHARD B'
p420
(dp421
g3
I3523
sg4
I649584
sg6
F0.06742640075973409
sg7
F0.2971503833789019
sg8
g5
sg9
I00
sg10
I-694862
sg11
S'rick.buy@enron.com'
p422
sg13
I769862
sg14
F0.022745867852289374
sg15
F0.07097186116718356
sg16
F0.4223591230295343
sg17
g5
sg18
I2333
sg19
g5
sg20
I1053
sg21
I400572
sg22
F0.20373714375441626
sg23
g5
sg24
I900000
sg25
F0.04428044280442804
sg26
I3444470
sg27
I156
sg28
I71
sg29
I901657
sg30
F0.10466582597730138
sg31
I330546
sg32
I2355702
sg33
F0.20189507378247287
sg34
I2542813
sg35
F0.06742640075973409
ssS'GRAMM WENDY L'
p423
(dp424
g3
g5
sg4
g5
sg6
I0
sg7
g38
sg8
g5
sg9
I00
sg10
g5
sg11
g5
sg13
g5
sg14
F0.0011504867557242014
sg15
g38
sg16
g38
sg17
g5
sg18
g5
sg19
g5
sg20
g5
sg21
g5
sg22
F0.0
sg23
I119292
sg24
g5
sg25
I0
sg26
g5
sg27
g5
sg28
g5
sg29
g5
sg30
g38
sg31
g5
sg32
I119292
sg33
g38
sg34
g5
sg35
F0.0
ssS'CAUSEY RICHARD A'
p425
(dp426
g3
I1892
sg4
g5
sg6
F0.24489795918367346
sg7
F0.3733517227968429
sg8
I30674
sg9
I01
sg10
I-235000
sg11
S'richard.causey@enron.com'
p427
sg13
I350000
sg14
F0.018043804611342574
sg15
F0.05179938849950292
sg16
F0.28682732379054177
sg17
g5
sg18
I1585
sg19
g5
sg20
I49
sg21
I307895
sg22
F0.14104741127254733
sg23
g5
sg24
I1000000
sg25
F0.0306553911205074
sg26
I2502063
sg27
I58
sg28
I12
sg29
I2502063
sg30
F0.11727616645649433
sg31
I415189
sg32
I1868758
sg33
F0.29405153141300355
sg34
g5
sg35
F0.24489795918367346
ssS'TAYLOR MITCHELL S'
p428
(dp429
g3
I533
sg4
I227449
sg6
F0.0
sg7
F0.23833410906380287
sg8
g5
sg9
I00
sg10
g5
sg11
S'mitchell.taylor@enron.com'
p430
sg13
g5
sg14
F0.010549620945494744
sg15
F0.0770868661379723
sg16
F0.05399528900163073
sg17
g5
sg18
I300
sg19
g5
sg20
I29
sg21
g5
sg22
F0.0
sg23
g5
sg24
I600000
sg25
F0.0
sg26
I3745048
sg27
I0
sg28
I0
sg29
I563798
sg30
F0.06683480453972257
sg31
I265214
sg32
I1092663
sg33
F0.18244008010049875
sg34
I3181250
sg35
F0.0
ssS'DONAHUE JR JEFFREY M'
p431
(dp432
g3
I865
sg4
g5
sg6
F0.5
sg7
F0.25038598967753317
sg8
I96268
sg9
I00
sg10
I-300000
sg11
S'jeff.donahue@enron.com'
p433
sg13
g5
sg14
F0.008455146790045486
sg15
F0.02288882056417959
sg16
F0.1395180286283747
sg17
g5
sg18
I772
sg19
g5
sg20
I22
sg21
I891
sg22
F1.0
sg23
g5
sg24
I800000
sg25
F0.21734104046242775
sg26
I1080988
sg27
I188
sg28
I11
sg29
I315068
sg30
F0.09205548549810845
sg31
I278601
sg32
I875760
sg33
F0.1681174171596938
sg34
I765920
sg35
F0.5
ssS'GLISAN JR BEN F'
p434
(dp435
g3
I873
sg4
g5
sg6
F0.375
sg7
F0.24712161983325245
sg8
I125978
sg9
I01
sg10
g5
sg11
S'ben.glisan@enron.com'
p436
sg13
I71023
sg14
F0.012284090004364152
sg15
F0.016735894091266437
sg16
F0.15799963761551006
sg17
g5
sg18
I874
sg19
g5
sg20
I16
sg21
I200308
sg22
F0.27406107577197725
sg23
g5
sg24
I600000
sg25
F0.05956471935853379
sg26
I778546
sg27
I52
sg28
I6
sg29
I393818
sg30
F0.06683480453972257
sg31
I274975
sg32
I1272284
sg33
F0.17265209213492153
sg34
I384728
sg35
F0.375
ss.